(dp0
S'Start'
p1
(lp2
((I58
I31
tp3
I0
tp4
asS'Main'
p5
(lp6
(I58
I74
tp7
a(I59
I207
tp8
a(I65
I350
tp9
a(I157
I459
tp10
a(I318
I463
tp11
a(I471
I462
tp12
a(I561
I389
tp13
a(I564
I302
tp14
a(I561
I200
tp15
a(I561
I123
tp16
a(I496
I69
tp17
a(I405
I70
tp18
a(I300
I75
tp19
a(I202
I84
tp20
a(I161
I150
tp21
a(I158
I210
tp22
a(I166
I273
tp23
a(I194
I342
tp24
a(I249
I376
tp25
a(I324
I386
tp26
a(I399
I387
tp27
a(I454
I354
tp28
a(I481
I309
tp29
a(I478
I257
tp30
a(I472
I199
tp31
a(I432
I154
tp32
a(I369
I147
tp33
a(I324
I153
tp34
a(I266
I166
tp35
a(I241
I197
tp36
a(I240
I240
tp37
a(I256
I293
tp38
a(I299
I325
tp39
a(I339
I322
tp40
a(I393
I318
tp41
a(I424
I267
tp42
a(I411
I241
tp43
a(I385
I205
tp44
a(I332
I216
tp45
a(I309
I251
tp46
a(I343
I265
tp47
asS'End'
p48
(lp49
((I26
I179
tp50
I1
tp51
a((I27
I315
tp52
I2
tp53
a((I190
I493
tp54
I3
tp55
a((I531
I467
tp56
I5
tp57
a((I527
I365
tp58
I6
tp59
a((I338
I505
tp60
I4
tp61
a((I399
I431
tp62
I20
tp63
a((I589
I303
tp64
I7
tp65
a((I544
I205
tp66
I8
tp67
a((I572
I95
tp68
I9
tp69
a((I482
I24
tp70
I10
tp71
a((I369
I39
tp72
I11
tp73
a((I255
I45
tp74
I12
tp75
a((I180
I64
tp76
I13
tp77
a((I127
I159
tp78
I14
tp79
a((I125
I223
tp80
I15
tp81
a((I151
I301
tp82
I16
tp83
a((I185
I386
tp84
I17
tp85
a((I273
I410
tp86
I18
tp87
a((I349
I432
tp88
I4
tp89
a((I353
I356
tp90
I33
tp91
a((I482
I381
tp92
I21
tp93
a((I513
I267
tp94
I23
tp95
a((I513
I300
tp96
I22
tp97
a((I443
I208
tp98
I24
tp99
a((I426
I111
tp100
I25
tp101
a((I357
I115
tp102
I26
tp103
a((I257
I138
tp104
I28
tp105
a((I218
I195
tp106
I29
tp107
a((I221
I268
tp108
I30
tp109
a((I258
I321
tp110
I31
tp111
a((I382
I287
tp112
I34
tp113
a((I433
I234
tp114
I36
tp115
a((I404
I177
tp116
I37
tp117
a((I328
I192
tp118
I38
tp119
a((I264
I238
tp120
I30
tp121
a((I290
I241
tp122
I39
tp123
a((I357
I271
tp124
I40
tp125
as.