(dp0
S'Start'
p1
(lp2
((I527
I582
tp3
I1
tp4
a((I10
I180
tp5
I0
tp6
a((I575
I590
tp7
I3
tp8
a((I359
I17
tp9
I2
tp10
a((I744
I189
tp11
I5
tp12
a((I6
I232
tp13
I4
tp14
asS'Main'
p15
(lp16
(I43
I196
tp17
a(I506
I582
tp18
a(I380
I54
tp19
a(I559
I572
tp20
a(I27
I226
tp21
a(I713
I202
tp22
asS'End'
p23
(lp24
((I22
I167
tp25
I0
tp26
a((I513
I594
tp27
I1
tp28
a((I377
I13
tp29
I2
tp30
a((I556
I594
tp31
I3
tp32
a((I7
I214
tp33
I4
tp34
a((I748
I212
tp35
I5
tp36
as.