(dp0
S'Start'
p1
(lp2
((I498
I505
tp3
I3
tp4
a((I464
I47
tp5
I2
tp6
a((I650
I191
tp7
I1
tp8
a((I156
I207
tp9
I0
tp10
a((I455
I542
tp11
I5
tp12
a((I130
I217
tp13
I4
tp14
asS'Main'
p15
(lp16
(I178
I198
tp17
a(I617
I201
tp18
a(I477
I71
tp19
a(I487
I484
tp20
a(I136
I233
tp21
a(I448
I521
tp22
asS'End'
p23
(lp24
((I490
I45
tp25
I2
tp26
a((I477
I506
tp27
I3
tp28
a((I158
I187
tp29
I0
tp30
a((I652
I217
tp31
I1
tp32
a((I118
I229
tp33
I4
tp34
a((I470
I526
tp35
I5
tp36
as.