(dp0
S'Start'
p1
(lp2
((I567
I155
tp3
I3
tp4
a((I37
I229
tp5
I0
tp6
a((I459
I562
tp7
I1
tp8
a((I287
I16
tp9
I2
tp10
asS'Main'
p11
(lp12
(I58
I225
tp13
a(I442
I547
tp14
a(I300
I30
tp15
a(I547
I166
tp16
asS'End'
p17
(lp18
((I569
I172
tp19
I3
tp20
a((I39
I214
tp21
I0
tp22
a((I437
I567
tp23
I1
tp24
a((I307
I13
tp25
I2
tp26
as.