(dp0
S'Start'
p1
(lp2
((I50
I224
tp3
I0
tp4
a((I566
I147
tp5
I1
tp6
a((I296
I20
tp7
I3
tp8
a((I425
I463
tp9
I2
tp10
asS'Main'
p11
(lp12
(I69
I224
tp13
a(I552
I158
tp14
a(I417
I470
tp15
a(I312
I35
tp16
asS'End'
p17
(lp18
((I59
I210
tp19
I0
tp20
a((I569
I160
tp21
I1
tp22
a((I314
I15
tp23
I3
tp24
a((I407
I476
tp25
I2
tp26
as.