(dp0
S'Start'
p1
(lp2
((I214
I475
tp3
I1
tp4
a((I289
I22
tp5
I2
tp6
a((I314
I483
tp7
I5
tp8
a((I368
I21
tp9
I6
tp10
a((I422
I487
tp11
I9
tp12
asS'Main'
p13
(lp14
(I236
I41
tp15
a(I214
I462
tp16
a(I289
I36
tp17
a(I263
I468
tp18
a(I336
I37
tp19
a(I314
I469
tp20
a(I367
I35
tp21
a(I365
I479
tp22
a(I421
I32
tp23
a(I422
I475
tp24
asS'End'
p25
(lp26
((I236
I29
tp27
I0
tp28
a((I263
I485
tp29
I3
tp30
a((I337
I22
tp31
I4
tp32
a((I365
I490
tp33
I7
tp34
a((I422
I19
tp35
I8
tp36
as.