(lp0
F7.2480000000000055
aF9.296000000000006
aF11.584000000000009
aF12.62400000000001
aF14.384000000000011
aF16.19199999999999
aF19.503999999999625
aF24.399999999999086
aF26.27199999999888
aF27.53599999999874
aF28.015999999998687
aF28.783999999998603
aF29.663999999998506
aF30.71999999999839
aF32.879999999998155
aF34.44799999999798
aF43.327999999997004
aF45.311999999996786
a.