(lp0
F6.656000000000005
aF12.256000000000009
aF13.56800000000001
aF15.184000000000012
aF17.567999999999838
aF18.127999999999776
aF19.37599999999964
aF20.047999999999565
aF24.54399999999907
aF29.51999999999852
aF29.951999999998474
aF30.27199999999844
aF35.95199999999782
aF38.8479999999975
aF39.61599999999741
aF41.5359999999972
aF44.20799999999691
aF45.66399999999675
aF46.91199999999661
aF47.79199999999651
aF48.7999999999964
aF51.775999999996074
aF53.24799999999591
aF53.503999999995884
aF55.10399999999571
aF55.1679999999957
aF56.44799999999556
aF57.79199999999541
aF59.16799999999526
aF59.311999999995244
aF61.59999999999499
aF64.25599999999481
aF64.92799999999504
aF66.9279999999957
aF70.68799999999696
aF72.8959999999977
aF73.4879999999979
aF75.87199999999869
aF76.12799999999878
aF76.83199999999901
aF77.4079999999992
aF82.99200000000107
aF83.16800000000113
aF83.87200000000136
aF84.67200000000163
aF85.98400000000207
aF86.20800000000214
aF86.59200000000227
aF87.16800000000246
aF88.73600000000299
aF93.32800000000452
aF93.63200000000462
aF94.08000000000477
aF94.1600000000048
aF96.44800000000556
aF98.62400000000629
aF100.00000000000675
aF100.64000000000696
aF102.5280000000076
aF102.62400000000763
aF103.1520000000078
aF105.98400000000875
aF106.25600000000884
aF109.23200000000983
aF109.85600000001004
aF109.87200000001005
aF111.37600000001055
aF111.45600000001058
aF114.91200000001173
aF115.00800000001176
aF115.63200000001197
aF120.67200000001365
aF122.0160000000141
aF122.35200000001421
aF122.68800000001433
aF122.75200000001435
aF128.7200000000157
aF129.29600000001537
aF129.68000000001516
aF131.48800000001415
aF132.22400000001375
aF135.7280000000118
aF140.57600000000912
aF144.384000000007
aF145.8400000000062
aF146.06400000000608
aF156.1440000000005
aF156.73600000000016
aF157.32799999999983
aF157.85599999999954
aF160.35199999999816
aF162.415999999997
aF164.65599999999577
aF170.47999999999254
aF172.07999999999166
aF173.263999999991
aF179.43999999998758
aF179.79199999998738
aF181.2159999999866
aF181.80799999998627
aF181.87199999998623
aF182.57599999998584
aF182.6559999999858
aF184.12799999998498
aF184.75199999998463
aF185.07199999998446
aF185.64799999998414
aF185.66399999998413
aF185.6959999999841
aF187.80799999998294
aF188.6079999999825
aF189.82399999998182
aF191.1359999999811
aF192.06399999998058
aF192.30399999998045
aF193.87199999997958
aF196.04799999997837
aF196.84799999997793
aF198.44799999997704
aF200.54399999997588
aF202.8319999999746
aF204.01599999997396
aF204.52799999997367
aF209.59999999997086
aF214.43199999996818
aF215.07199999996783
aF217.8239999999663
aF220.5279999999648
aF221.4559999999643
aF224.62399999996254
aF232.17599999995835
aF241.23199999995333
aF243.23199999995222
aF244.46399999995154
aF247.6159999999498
aF248.03199999994956
aF249.29599999994886
aF249.99999999994847
aF250.4959999999482
aF251.35999999994772
aF254.1119999999462
aF255.59999999994537
aF258.6719999999484
aF261.31199999995164
aF264.3839999999554
aF265.23199999995643
aF265.74399999995705
aF267.03999999995864
aF267.1679999999588
aF267.1839999999588
aF268.14399999996
aF269.34399999996145
aF269.58399999996175
aF271.64799999996427
aF272.19199999996493
aF273.4079999999664
aF274.8639999999682
aF276.20799999996984
aF277.91999999997194
aF280.5119999999751
aF283.32799999997854
aF284.2559999999797
aF285.69599999998144
aF286.3199999999822
aF287.1999999999833
aF288.5279999999849
aF289.8559999999865
aF294.1119999999917
aF294.1919999999918
aF294.95999999999276
aF298.1759999999967
aF298.1919999999967
aF298.7679999999974
aF300.4159999999994
aF303.0720000000027
aF304.12800000000396
aF305.34400000000545
aF307.53600000000813
aF308.9120000000098
aF310.73600000001204
aF311.3440000000128
aF312.4800000000142
aF313.04000000001486
aF314.9600000000172
aF317.4240000000202
aF317.6800000000205
aF318.84800000002195
aF320.24000000002366
aF320.30400000002373
aF320.97600000002456
aF321.5840000000253
aF321.9840000000258
aF322.4800000000264
aF323.8880000000281
aF325.9200000000306
aF327.93600000003306
aF328.3040000000335
aF329.08800000003447
aF330.62400000003635
aF330.86400000003664
aF330.8960000000367
aF331.10400000003693
aF332.3840000000385
aF335.69600000004255
aF336.6560000000437
aF337.68000000004497
aF338.49600000004597
aF339.13600000004675
aF339.69600000004743
aF341.66400000004984
aF342.32000000005064
aF343.47200000005205
aF349.2480000000591
aF351.7760000000622
aF354.01600000006493
aF354.60800000006566
aF355.4560000000667
aF356.97600000006855
aF357.9200000000697
aF358.4800000000704
aF360.40000000007274
aF361.8560000000745
aF364.4800000000777
aF365.0240000000784
aF367.4080000000813
aF368.7040000000829
aF374.96000000009053
aF381.3280000000983
aF383.0240000001004
aF383.55200000010103
aF384.1760000001018
aF385.44000000010334
aF386.784000000105
aF387.00800000010526
aF387.1200000001054
aF387.2960000001056
aF387.40800000010574
aF388.88000000010754
aF390.8000000001099
aF390.83200000010993
aF391.8080000001111
aF392.3680000001118
aF394.2560000001141
aF395.3120000001154
aF395.6960000001159
aF398.272000000119
aF398.80000000011967
aF402.72000000012446
aF403.87200000012587
aF406.9280000001296
aF407.1840000001299
aF407.37600000013015
aF409.84000000013316
aF410.97600000013455
aF414.59200000013897
aF417.76000000014284
aF418.76800000014407
aF422.0800000001481
aF423.0400000001493
aF423.6960000001501
aF424.2560000001508
aF425.9040000001528
aF430.36800000015825
aF431.2480000001593
aF431.9040000001601
aF432.5280000001609
aF433.2160000001617
aF433.5360000001621
aF434.4160000001632
aF434.54400000016335
aF435.68000000016474
aF439.36000000016924
aF439.8080000001698
aF440.6560000001708
aF442.3680000001729
aF442.9920000001737
aF445.0720000001762
aF446.80000000017833
aF447.4240000001791
aF448.16000000018
aF450.65600000018304
aF451.23200000018375
aF451.80800000018445
aF453.056000000186
aF454.00000000018713
aF456.2560000001899
aF457.79200000019176
aF459.66400000019405
aF460.49600000019507
aF461.3600000001961
aF462.1600000001971
aF464.3040000001997
aF464.97600000020054
aF465.5040000002012
aF466.176000000202
aF467.02400000020305
aF470.8960000002078
aF472.2880000002095
aF474.80000000021255
aF476.0480000002141
aF477.3120000002156
aF478.32000000021685
aF480.2240000002192
aF480.9920000002201
aF481.16800000022033
aF481.60000000022086
aF481.82400000022113
aF482.73600000022225
aF483.32800000022297
aF486.19200000022647
aF487.424000000228
aF488.5760000002294
aF492.2080000002338
aF492.9280000002347
aF493.47200000023537
aF493.984000000236
aF494.83200000023703
aF495.76000000023816
aF497.7440000002406
aF502.14400000024597
aF507.05600000025197
aF508.6560000002539
aF508.736000000254
aF509.1040000002545
aF509.6000000002551
aF514.8800000002512
aF517.0400000002462
aF519.2160000002411
aF519.4240000002407
aF519.7600000002399
aF520.0480000002392
aF520.6400000002378
aF521.8880000002349
aF524.1280000002297
aF526.3360000002245
aF527.1840000002226
aF527.8880000002209
aF531.1040000002134
aF534.1120000002064
aF535.0400000002043
aF537.3440000001989
aF538.2240000001968
aF538.8480000001954
aF539.6960000001934
aF540.720000000191
aF541.4560000001893
aF541.600000000189
aF542.0640000001879
aF550.608000000168
aF552.0000000001647
aF553.0080000001624
aF554.5760000001587
aF555.6960000001561
aF556.160000000155
aF556.5440000001541
aF559.7120000001468
aF560.480000000145
aF560.5920000001447
aF560.7040000001444
aF562.3520000001406
aF565.2800000001338
aF569.2320000001246
aF571.0400000001204
aF571.20000000012
aF572.0800000001179
aF572.5280000001169
aF572.5920000001167
aF576.2240000001083
aF578.0160000001041
aF581.4560000000961
aF581.8080000000953
aF582.0960000000946
aF582.6560000000933
aF582.9120000000927
aF583.7760000000907
aF584.7520000000884
aF586.9280000000833
aF587.504000000082
aF595.0560000000644
aF596.2400000000616
aF597.0400000000598
aF597.3280000000591
aF600.8800000000508
aF601.1520000000502
aF602.3200000000475
aF603.1040000000456
aF606.5760000000375
aF609.0400000000318
aF609.1360000000316
aF609.3280000000311
aF609.79200000003
aF610.1280000000293
aF610.6080000000281
aF610.8000000000277
aF611.8240000000253
aF614.7360000000185
aF614.9920000000179
aF616.240000000015
aF617.8560000000112
aF617.8720000000112
aF619.5680000000073
aF619.9840000000063
aF620.6560000000047
aF620.7200000000046
aF621.6800000000023
aF622.0640000000014
aF622.272000000001
aF622.4480000000005
aF622.7839999999998
aF624.9119999999948
aF625.8719999999926
aF627.9999999999876
aF628.5439999999863
aF630.383999999982
aF639.3919999999611
aF640.3359999999589
aF641.8399999999554
aF643.0879999999524
aF644.7039999999487
aF646.7839999999438
aF647.3919999999424
aF647.7119999999417
aF647.9679999999411
aF647.983999999941
aF648.7999999999391
aF649.1679999999383
aF649.6319999999372
aF651.1679999999336
aF653.7599999999276
aF655.5519999999234
aF656.2399999999218
aF659.5519999999141
aF660.6239999999116
aF661.8399999999087
aF662.575999999907
aF663.3919999999051
aF663.5839999999047
aF665.9679999998991
aF667.1839999998963
aF668.4959999998932
aF669.1839999998916
aF670.2559999998891
aF671.3919999998865
aF672.7839999998832
aF674.8799999998784
aF676.5439999998745
aF677.4399999998724
aF678.7359999998694
aF679.7919999998669
aF683.0879999998592
aF687.6959999998485
aF689.5519999998442
aF691.4399999998398
aF692.1439999998381
aF692.3999999998375
aF695.7919999998296
aF696.7999999998273
aF698.9919999998222
aF701.3759999998166
aF703.8559999998108
aF705.5679999998068
aF705.7599999998064
aF706.2719999998052
aF706.9759999998035
aF707.3119999998028
aF711.0239999997941
aF713.8239999997876
aF718.367999999777
aF719.4559999997745
aF723.935999999764
aF724.799999999762
aF728.7199999997529
aF729.3599999997514
aF729.4399999997512
aF729.9999999997499
aF731.0879999997474
aF731.5999999997462
aF733.0239999997428
aF733.1999999997424
aF738.7999999997294
aF741.3119999997235
aF741.951999999722
aF749.8239999997037
aF750.2079999997028
aF751.6159999996995
aF755.1359999996913
aF757.391999999686
aF757.7919999996851
aF757.9839999996847
aF759.0079999996823
aF759.5999999996809
aF765.0879999996681
aF775.5359999996438
aF776.303999999642
aF780.6719999996318
aF785.4399999996207
aF788.287999999614
aF789.1039999996121
aF789.6799999996108
aF790.5439999996088
aF793.8399999996011
aF797.1999999995933
aF797.5839999995924
aF797.743999999592
aF797.8719999995917
aF799.6159999995876
aF800.1919999995863
aF803.3599999995789
aF803.3599999995789
aF807.6639999995689
aF808.2239999995676
aF809.0879999995656
aF811.8399999995592
aF812.4479999995577
aF813.8239999995545
aF814.5599999995528
aF816.9279999995473
aF817.5999999995457
aF818.2879999995441
aF818.9599999995426
aF821.2639999995372
aF821.8079999995359
aF821.9679999995356
aF823.3119999995324
aF823.9519999995309
aF825.1359999995282
aF827.5039999995226
aF828.3519999995207
aF829.1359999995188
aF830.0159999995168
aF835.4399999995042
aF835.8399999995032
aF836.3999999995019
aF840.207999999493
aF841.4399999994902
aF841.8879999994891
aF844.2239999994837
aF844.5599999994829
aF844.927999999482
aF845.7279999994802
aF845.8719999994798
aF846.255999999479
aF847.1679999994768
aF847.1999999994767
aF851.0559999994678
aF851.6319999994664
aF854.9279999994587
aF855.3439999994578
aF856.6239999994548
aF857.6159999994525
aF857.6639999994524
aF857.7759999994521
aF858.8479999994496
aF859.4399999994482
aF860.5919999994455
aF862.2719999994416
aF866.6879999994313
aF870.4159999994226
aF875.1359999994116
aF876.0319999994095
aF876.0639999994095
aF877.5039999994061
aF878.0319999994049
aF879.263999999402
aF879.6479999994011
aF881.5039999993968
aF882.3359999993949
aF884.41599999939
aF884.5599999993897
aF886.8479999993843
aF887.0559999993839
aF888.4799999993805
aF890.6719999993754
aF891.4559999993736
aF891.4719999993736
aF892.7679999993705
aF892.8639999993703
aF894.1919999993672
aF896.2719999993624
aF896.847999999361
aF897.6799999993591
aF902.1279999993487
aF902.7519999993473
aF904.3519999993435
aF907.6479999993359
aF907.8559999993354
aF908.463999999334
aF911.3599999993272
aF913.2799999993227
aF913.8399999993214
aF913.9359999993212
aF916.3999999993155
aF917.9359999993119
aF918.6079999993103
aF919.5199999993082
aF921.4399999993037
aF921.727999999303
aF922.7199999993007
aF922.7839999993006
aF923.0879999992999
aF924.0319999992977
aF925.615999999294
aF925.6959999992938
aF926.2719999992925
aF927.2959999992901
aF930.0959999992835
aF930.4639999992827
aF932.5279999992779
aF936.767999999268
aF937.3759999992666
aF937.9199999992653
aF938.1759999992647
aF940.9599999992582
aF942.1119999992555
aF942.3039999992551
aF942.9919999992535
aF946.5919999992451
aF947.1199999992439
aF947.1359999992438
aF947.3279999992434
aF948.1599999992414
aF948.8319999992399
aF949.4399999992385
aF950.3039999992365
aF952.191999999232
aF952.2559999992319
aF952.8639999992305
aF957.35999999922
aF957.4239999992199
aF959.6159999992148
aF960.8639999992118
aF962.7039999992076
aF963.5359999992056
aF963.7279999992052
aF966.4959999991987
aF967.1039999991973
aF967.9039999991954
aF970.3199999991898
aF970.5279999991893
aF974.2079999991807
aF975.1679999991785
aF975.8719999991769
aF976.1279999991763
aF976.4799999991754
aF977.2319999991737
aF978.1599999991715
aF984.5759999991566
aF985.6479999991541
aF986.7359999991515
aF991.9519999991394
aF998.543999999124
aF998.7519999991235
aF999.2799999991223
aF1000.5599999991193
aF1002.4959999991148
aF1004.7839999991095
aF1006.7839999991048
aF1014.5279999990868
aF1015.279999999085
aF1016.5119999990821
aF1019.999999999074
aF1023.3439999990662
aF1024.735999999068
aF1028.6079999990866
aF1030.2239999990943
aF1031.0239999990981
aF1031.3279999990996
aF1033.1839999991084
aF1035.5519999991197
aF1040.399999999143
aF1040.7039999991443
aF1041.87199999915
aF1043.3279999991569
aF1044.7839999991638
aF1047.5679999991771
aF1048.2879999991806
aF1049.855999999188
aF1052.9599999992029
aF1054.7679999992115
aF1057.0079999992222
aF1057.2479999992233
aF1059.1679999992325
aF1059.1679999992325
aF1059.679999999235
aF1059.8079999992356
aF1060.8319999992405
aF1062.3039999992475
aF1064.735999999259
aF1065.743999999264
aF1069.6479999992825
aF1071.9039999992933
aF1072.7839999992975
aF1074.1119999993039
aF1074.8479999993074
aF1078.8479999993265
aF1079.5519999993298
aF1079.9359999993317
aF1080.1119999993325
aF1080.7519999993356
aF1081.0079999993368
aF1081.3919999993386
aF1082.959999999346
aF1083.9359999993508
aF1085.9519999993604
aF1087.4079999993673
aF1091.2639999993858
aF1091.5999999993874
aF1092.0319999993894
aF1092.591999999392
aF1096.543999999411
aF1097.375999999415
aF1097.5199999994156
aF1098.015999999418
aF1098.7679999994216
aF1099.7279999994262
aF1099.7599999994263
aF1101.151999999433
aF1102.3839999994389
aF1103.263999999443
aF1103.9999999994466
aF1106.0799999994565
aF1106.7359999994596
aF1106.9279999994606
aF1111.423999999482
aF1111.5999999994829
aF1112.9439999994893
aF1113.1199999994901
aF1121.4399999995298
aF1125.7599999995505
aF1128.9599999995658
aF1130.7199999995742
aF1131.0079999995755
aF1134.3199999995913
aF1137.4559999996063
aF1138.1119999996095
aF1140.7679999996221
aF1140.959999999623
aF1143.5039999996352
aF1145.327999999644
aF1146.7519999996507
aF1146.9119999996515
aF1147.6159999996548
aF1147.855999999656
aF1148.5439999996593
aF1150.78399999967
aF1152.3039999996772
aF1153.3439999996822
aF1153.535999999683
aF1154.4159999996873
aF1154.8479999996894
aF1157.295999999701
aF1160.0639999997143
aF1160.7359999997175
aF1162.4799999997258
aF1165.0719999997382
aF1166.0319999997428
aF1166.5919999997454
aF1166.8319999997466
aF1167.9359999997519
aF1167.9359999997519
aF1168.2079999997532
aF1169.231999999758
aF1170.271999999763
aF1171.295999999768
aF1173.0879999997765
aF1173.4879999997784
aF1173.7439999997796
aF1174.463999999783
aF1175.7599999997892
aF1178.7519999998035
aF1180.6719999998127
aF1181.7599999998179
aF1182.3839999998208
aF1183.7759999998275
aF1184.2239999998296
aF1185.4239999998354
aF1185.967999999838
aF1186.591999999841
aF1187.7759999998466
aF1188.2559999998489
aF1188.51199999985
aF1189.2799999998538
aF1189.8719999998566
aF1191.423999999864
aF1193.2319999998726
aF1193.951999999876
aF1197.263999999892
aF1197.3919999998925
aF1197.6799999998939
aF1198.0319999998956
aF1199.4719999999024
aF1202.5599999999172
aF1203.775999999923
aF1207.9199999999428
aF1209.4879999999503
aF1215.1519999999773
aF1216.5919999999842
aF1217.375999999988
aF1219.1519999999964
aF1220.0000000000005
aF1221.0240000000053
aF1221.4880000000076
aF1222.832000000014
aF1222.8800000000142
aF1224.3520000000212
aF1226.9760000000338
aF1227.9680000000385
aF1234.8640000000714
aF1235.0560000000723
aF1235.2800000000734
aF1235.408000000074
aF1236.3680000000786
aF1238.2560000000876
aF1238.4480000000885
aF1238.9920000000911
aF1239.9520000000957
aF1240.000000000096
aF1243.136000000111
aF1246.0480000001248
aF1246.512000000127
aF1250.3040000001452
aF1250.7200000001471
aF1250.8160000001476
aF1251.5840000001513
aF1252.576000000156
aF1255.904000000172
aF1257.0560000001774
aF1258.448000000184
aF1260.5920000001943
aF1260.8960000001957
aF1261.5040000001986
aF1262.7680000002047
aF1263.7600000002094
aF1263.9360000002102
aF1266.3040000002215
aF1266.8800000002243
aF1270.8480000002432
aF1272.8480000002528
aF1273.1520000002542
aF1273.2160000002546
aF1273.8240000002575
aF1274.6240000002613
aF1275.3760000002649
aF1276.9920000002726
aF1277.1360000002733
aF1277.936000000277
aF1279.1360000002828
aF1281.1360000002924
aF1283.0080000003013
aF1283.4720000003035
aF1283.584000000304
aF1284.3520000003077
aF1289.5040000003323
aF1293.9840000003537
aF1295.3600000003603
aF1298.7680000003766
aF1300.6880000003857
aF1300.944000000387
aF1302.8960000003963
aF1303.5680000003995
aF1303.7440000004003
aF1304.0480000004018
aF1305.2800000004077
aF1306.800000000415
aF1307.3920000004177
aF1307.87200000042
aF1308.096000000421
aF1309.0560000004257
aF1312.4160000004417
aF1312.8320000004437
aF1313.1520000004452
aF1314.9280000004537
aF1315.7120000004575
aF1316.3520000004605
aF1318.1920000004693
aF1318.32000000047
aF1320.3040000004794
aF1320.44800000048
aF1322.128000000488
aF1323.3120000004938
aF1325.1680000005026
aF1325.7280000005053
aF1327.152000000512
aF1328.192000000517
aF1328.8480000005202
aF1329.664000000524
aF1331.7760000005342
aF1332.4160000005372
aF1333.7120000005434
aF1334.3200000005463
aF1334.3360000005464
aF1334.4000000005467
aF1335.4080000005515
aF1336.6240000005573
aF1337.392000000561
aF1342.5120000005854
aF1343.1040000005883
aF1344.0640000005928
aF1348.704000000615
aF1348.720000000615
aF1350.0000000006212
aF1353.0080000006355
aF1354.0960000006407
aF1354.976000000645
aF1355.6640000006482
aF1357.1360000006553
aF1357.7600000006582
aF1366.3520000006993
aF1368.0000000007071
aF1368.3360000007087
aF1371.7120000007249
aF1372.5440000007288
aF1372.976000000731
aF1373.1200000007316
aF1373.4880000007333
aF1376.144000000746
aF1376.544000000748
aF1378.0960000007553
aF1378.7840000007586
aF1381.5360000007718
aF1382.0480000007742
aF1383.6160000007817
aF1386.3200000007946
aF1386.9760000007977
aF1387.4400000008
aF1387.648000000801
aF1388.096000000803
aF1390.5600000008149
aF1391.232000000818
aF1392.0960000008222
aF1393.0720000008268
aF1393.504000000829
aF1394.2720000008326
aF1395.3760000008378
aF1397.3600000008473
aF1398.3040000008518
aF1398.4160000008524
aF1398.528000000853
aF1401.2000000008657
aF1402.3520000008712
aF1403.9360000008787
aF1405.4880000008861
aF1405.9840000008885
aF1406.30400000089
aF1409.648000000906
aF1410.2080000009087
aF1411.5680000009152
aF1414.1920000009277
aF1417.9200000009455
aF1418.9440000009504
aF1419.9680000009553
aF1420.8480000009595
aF1421.0880000009606
aF1424.3520000009762
aF1427.7440000009924
aF1429.1840000009993
aF1430.592000001006
aF1431.1840000010088
aF1431.5360000010105
aF1432.4000000010146
aF1433.2320000010186
aF1434.0800000010227
aF1436.5760000010346
aF1444.01600000107
aF1446.720000001083
aF1447.152000001085
aF1447.3120000010858
aF1449.7920000010977
aF1450.8800000011029
aF1451.136000001104
aF1453.408000001115
aF1456.5280000011298
aF1457.1520000011328
aF1458.9600000011415
aF1459.1680000011424
aF1460.2880000011478
aF1461.792000001155
aF1465.1040000011708
aF1465.6640000011735
aF1466.5120000011775
aF1467.3600000011816
aF1467.7760000011835
aF1473.0400000012087
aF1475.9040000012224
aF1477.696000001231
aF1477.8080000012314
aF1481.0240000012468
aF1482.0640000012518
aF1482.4800000012538
aF1482.6560000012546
aF1483.7280000012597
aF1483.7600000012599
aF1484.2720000012623
aF1489.664000001288
aF1490.0320000012898
aF1490.7680000012933
aF1491.2640000012957
aF1491.6000000012973
aF1491.8720000012986
aF1492.992000001304
aF1493.0880000013044
aF1493.232000001305
aF1493.856000001308
aF1494.9920000013135
aF1498.1440000013285
aF1498.9760000013325
aF1499.9680000013373
aF1500.6080000013403
aF1504.1280000013571
aF1504.1760000013574
aF1504.9120000013609
aF1507.248000001372
aF1511.856000001394
aF1513.1840000014004
aF1513.7600000014031
aF1514.592000001407
aF1515.0560000014093
aF1517.7440000014221
aF1520.9440000014374
aF1523.60000000145
aF1524.848000001456
aF1529.2000000014768
aF1532.2720000014915
aF1533.616000001498
aF1535.712000001508
aF1537.3760000015159
aF1537.6480000015172
aF1539.2000000015246
aF1539.7920000015274
aF1539.9840000015283
aF1540.752000001532
aF1543.3280000015443
aF1549.2800000015727
aF1550.78400000158
aF1551.8080000015848
aF1552.1920000015866
aF1553.936000001595
aF1554.0320000015954
aF1556.032000001605
aF1557.8080000016134
aF1558.7200000016178
aF1561.6000000016315
aF1564.016000001643
aF1564.9120000016474
aF1565.5360000016503
aF1566.2560000016538
aF1568.7840000016658
aF1572.0320000016814
aF1573.024000001686
aF1574.688000001694
aF1576.1920000017012
aF1576.4960000017027
a.