(lp0
F5.488000000000004
aF8.944000000000006
aF14.848000000000011
aF16.399999999999967
aF16.91199999999991
aF18.399999999999746
aF18.863999999999695
aF25.00799999999902
aF26.143999999998893
aF27.80799999999871
aF28.607999999998622
aF29.279999999998548
aF30.559999999998407
aF31.07199999999835
aF34.271999999998
aF36.19199999999779
aF38.89599999999749
aF40.54399999999731
aF41.91999999999716
aF44.57599999999687
aF45.98399999999671
aF46.127999999996696
aF48.127999999996476
aF50.92799999999617
aF51.59999999999609
aF52.671999999995975
aF53.71199999999586
aF56.65599999999554
aF59.583999999995214
aF60.51199999999511
aF60.95999999999506
aF61.199999999995036
aF61.855999999994964
aF62.23999999999492
aF64.65599999999495
aF65.05599999999508
aF65.82399999999534
aF67.16799999999579
aF67.45599999999588
aF68.01599999999607
aF71.03999999999708
aF71.31199999999717
aF71.95199999999738
aF73.53599999999791
aF75.69599999999863
aF77.15199999999912
aF77.72799999999931
aF78.81599999999968
aF79.64799999999995
aF79.87200000000003
aF80.11200000000011
aF81.5680000000006
aF86.94400000000239
aF88.81600000000302
aF91.95200000000406
aF93.31200000000452
aF94.43200000000489
aF98.12800000000612
aF98.30400000000618
aF100.736000000007
aF101.39200000000722
aF101.56800000000727
aF102.59200000000762
aF104.6400000000083
aF106.09600000000879
aF107.10400000000912
aF107.36000000000921
aF108.00000000000942
aF109.39200000000989
aF110.99200000001042
aF111.95200000001074
aF112.40000000001089
aF114.88000000001172
aF116.0160000000121
aF116.40000000001223
aF116.56000000001228
aF117.04000000001244
aF118.720000000013
aF118.84800000001304
aF120.2240000000135
aF120.28800000001353
aF120.38400000001356
aF120.8000000000137
aF122.40000000001423
aF122.6240000000143
aF123.13600000001448
aF123.90400000001473
aF124.86400000001505
aF125.42400000001524
aF126.17600000001549
aF126.54400000001561
aF127.28000000001586
aF128.144000000016
aF128.75200000001567
aF129.90400000001503
aF131.16800000001433
aF132.04800000001384
aF132.76800000001344
aF135.40800000001198
aF136.16000000001156
aF137.47200000001084
aF139.37600000000978
aF140.92800000000892
aF141.6960000000085
aF142.32000000000815
aF144.70400000000683
aF144.80000000000678
aF146.9280000000056
aF150.60800000000356
aF152.5280000000025
aF154.59200000000135
aF155.44000000000088
aF156.2880000000004
aF156.36800000000036
aF159.83999999999844
aF160.01599999999834
aF160.36799999999815
aF164.28799999999598
aF168.95999999999339
aF169.1359999999933
aF169.75999999999294
aF170.3839999999926
aF173.4559999999909
aF174.41599999999036
aF175.48799999998977
aF177.2319999999888
aF178.59199999998805
aF180.1279999999872
aF183.3439999999854
aF187.10399999998333
aF191.37599999998096
aF192.0479999999806
aF192.07999999998057
aF205.1839999999733
aF209.5199999999709
aF211.55199999996978
aF213.23199999996885
aF213.45599999996872
aF214.27199999996827
aF215.37599999996766
aF217.90399999996626
aF220.159999999965
aF221.0879999999645
aF221.74399999996413
aF222.60799999996365
aF222.91199999996348
aF222.91199999996348
aF223.45599999996318
aF225.13599999996225
aF227.2319999999611
aF227.85599999996074
aF227.87199999996074
aF227.9359999999607
aF228.55999999996035
aF229.19999999996
aF231.58399999995868
aF233.24799999995776
aF234.39999999995712
aF234.83199999995688
aF235.8879999999563
aF236.6079999999559
aF237.82399999995522
aF238.89599999995463
aF240.25599999995387
aF240.9119999999535
aF242.30399999995274
aF242.95999999995237
aF244.3519999999516
aF244.57599999995148
aF244.97599999995126
aF245.423999999951
aF245.56799999995093
aF245.93599999995072
aF247.48799999994986
aF248.1439999999495
aF248.73599999994917
aF250.35199999994828
aF251.08799999994787
aF252.23999999994723
aF252.59199999994703
aF253.43999999994656
aF254.9919999999457
aF257.80799999994736
aF258.54399999994826
aF258.8959999999487
aF259.91999999994994
aF260.1279999999502
aF260.5279999999507
aF262.3359999999529
aF263.1039999999538
aF264.09599999995504
aF265.4559999999567
aF265.5999999999569
aF268.3039999999602
aF268.8799999999609
aF270.23999999996255
aF276.9119999999707
aF277.5679999999715
aF278.09599999997215
aF280.3519999999749
aF280.63999999997526
aF281.05599999997577
aF282.3999999999774
aF282.895999999978
aF283.80799999997913
aF284.73599999998027
aF285.53599999998124
aF285.93599999998173
aF287.83999999998406
aF291.51999999998856
aF291.74399999998883
aF291.9519999999891
aF293.8239999999914
aF294.3999999999921
aF295.967999999994
aF298.3519999999969
aF298.5279999999971
aF298.9919999999977
aF299.0879999999978
aF300.063999999999
aF301.98400000000134
aF303.6800000000034
aF304.992000000005
aF305.5520000000057
aF308.5760000000094
aF310.8000000000121
aF312.1920000000138
aF312.4800000000142
aF312.60800000001433
aF313.45600000001537
aF314.8960000000171
aF316.6080000000192
aF317.0880000000198
aF317.13600000001986
aF317.69600000002055
aF318.3040000000213
aF320.0160000000234
aF322.04800000002587
aF322.4640000000264
aF323.4560000000276
aF324.25600000002856
aF325.95200000003064
aF326.46400000003126
aF328.2080000000334
aF328.8480000000342
aF329.9200000000355
aF330.22400000003586
aF330.48000000003617
aF331.168000000037
aF331.36000000003725
aF333.60000000004
aF338.9120000000465
aF339.85600000004763
aF340.3360000000482
aF340.8000000000488
aF341.6960000000499
aF343.15200000005166
aF345.20000000005416
aF348.40000000005807
aF349.69600000005966
aF351.07200000006134
aF351.72800000006214
aF353.6800000000645
aF356.0160000000674
aF357.4080000000691
aF362.3520000000751
aF362.4800000000753
aF364.00000000007714
aF366.12800000007974
aF367.20000000008105
aF367.95200000008197
aF369.0560000000833
aF369.66400000008406
aF370.0320000000845
aF371.28000000008603
aF371.6640000000865
aF373.8880000000892
aF374.54400000009
aF375.1680000000908
aF375.4080000000911
aF375.5840000000913
aF377.85600000009407
aF379.5360000000961
aF380.22400000009696
aF380.28800000009704
aF380.96000000009786
aF381.52000000009855
aF382.51200000009976
aF386.2880000001044
aF388.40000000010696
aF390.5760000001096
aF390.91200000011
aF391.6480000001109
aF392.0160000001114
aF394.62400000011456
aF394.68800000011464
aF397.9200000001186
aF398.14400000011887
aF398.5600000001194
aF400.59200000012186
aF402.6720000001244
aF403.12000000012495
aF403.4880000001254
aF404.5760000001267
aF406.48000000012905
aF407.0720000001298
aF411.344000000135
aF411.95200000013574
aF415.6800000001403
aF416.7520000001416
aF416.7680000001416
aF418.4640000001437
aF419.24800000014466
aF422.4800000001486
aF423.7920000001502
aF427.76000000015506
aF429.1040000001567
aF429.9200000001577
aF430.11200000015793
aF430.92800000015893
aF431.8880000001601
aF432.49600000016085
aF432.7040000001611
aF435.7920000001649
aF436.4640000001657
aF437.1040000001665
aF437.2640000001667
aF437.6800000001672
aF438.0960000001677
aF438.48000000016816
aF440.3200000001704
aF440.816000000171
aF441.3920000001717
aF441.4400000001718
aF442.0960000001726
aF446.73600000017825
aF450.2720000001826
aF450.32000000018263
aF452.6080000001854
aF453.4080000001864
aF453.7920000001869
aF456.33600000019
aF457.4880000001914
aF458.800000000193
aF459.82400000019425
aF461.9840000001969
aF464.8480000002004
aF464.8800000002004
aF466.976000000203
aF468.17600000020445
aF468.32000000020463
aF469.8400000002065
aF471.3120000002083
aF471.7120000002088
aF472.09600000020924
aF474.73600000021247
aF475.968000000214
aF476.3360000002144
aF477.16800000021544
aF479.280000000218
aF481.10400000022025
aF481.1200000002203
aF482.08000000022145
aF482.25600000022166
aF482.67200000022217
aF485.2480000002253
aF485.2960000002254
aF487.07200000022755
aF487.1200000002276
aF489.20000000023015
aF494.5440000002367
aF498.3840000002414
aF500.16000000024354
aF501.5840000002453
aF502.8160000002468
aF503.5520000002477
aF505.0240000002495
aF509.2160000002546
aF510.0320000002556
aF510.7520000002565
aF514.3520000002525
aF515.8080000002491
aF521.9040000002349
aF522.5760000002333
aF524.2720000002294
aF524.7680000002282
aF525.0400000002276
aF525.7600000002259
aF531.3920000002128
aF532.3040000002106
aF532.4800000002102
aF534.5120000002055
aF537.744000000198
aF538.176000000197
aF538.5120000001962
aF538.992000000195
aF540.3840000001918
aF540.9440000001905
aF541.9200000001882
aF543.8720000001837
aF544.9280000001812
aF545.1040000001808
aF546.5120000001775
aF549.3920000001708
aF549.4400000001707
aF550.0320000001693
aF551.5520000001658
aF551.9680000001648
aF552.2240000001642
aF553.2000000001619
aF554.3200000001593
aF555.3600000001569
aF556.1440000001551
aF557.7600000001513
aF558.8480000001488
aF561.6480000001422
aF562.60800000014
aF563.6640000001375
aF563.9680000001368
aF565.200000000134
aF565.8880000001324
aF567.9360000001276
aF571.9840000001182
aF572.064000000118
aF578.7520000001024
aF579.8880000000997
aF582.5760000000935
aF582.8960000000927
aF583.1360000000922
aF583.5520000000912
aF584.7040000000885
aF585.4720000000867
aF585.9040000000857
aF586.4800000000844
aF587.4240000000822
aF590.6880000000746
aF593.056000000069
aF595.4880000000634
aF596.1760000000618
aF597.1520000000595
aF597.8400000000579
aF599.0560000000551
aF600.9600000000506
aF604.4800000000424
aF605.0240000000412
aF605.7120000000396
aF612.800000000023
aF612.9760000000226
aF613.696000000021
aF616.0000000000156
aF617.8400000000113
aF618.3360000000101
aF619.3440000000078
aF621.6800000000023
aF623.7919999999974
aF627.9679999999877
aF628.5439999999863
aF629.1839999999848
aF630.815999999981
aF631.1679999999802
aF631.7599999999788
aF634.9439999999714
aF635.5039999999701
aF635.9039999999692
aF636.3519999999681
aF637.5039999999655
aF639.83999999996
aF640.8959999999576
aF640.9119999999575
aF643.3439999999518
aF644.0159999999503
aF644.7359999999486
aF645.2639999999474
aF647.0239999999433
aF650.159999999936
aF651.4879999999329
aF651.5199999999328
aF652.0639999999315
aF654.6879999999254
aF658.3999999999168
aF659.8879999999133
aF662.8159999999065
aF665.3599999999005
aF667.2159999998962
aF667.3439999998959
aF667.9999999998944
aF668.3999999998935
aF670.2719999998891
aF672.0639999998849
aF673.1359999998824
aF673.5199999998815
aF674.7999999998785
aF674.9919999998781
aF678.2879999998704
aF679.0879999998685
aF680.0319999998663
aF680.1279999998661
aF685.1199999998545
aF685.311999999854
aF687.9359999998479
aF688.783999999846
aF689.3919999998445
aF689.5839999998441
aF690.9919999998408
aF692.3359999998377
aF692.3999999998375
aF693.5359999998349
aF694.1759999998334
aF696.2399999998286
aF696.3999999998282
aF700.7199999998181
aF702.3679999998143
aF704.9919999998082
aF707.5679999998022
aF708.1919999998007
aF710.0799999997963
aF710.3199999997958
aF711.1999999997937
aF712.8799999997898
aF714.0159999997871
aF715.3919999997839
aF715.6639999997833
aF718.7199999997762
aF720.095999999773
aF720.9119999997711
aF721.7439999997691
aF722.2559999997679
aF722.8159999997666
aF723.8239999997643
aF723.967999999764
aF724.7359999997622
aF725.1519999997612
aF725.6159999997601
aF727.0239999997568
aF728.2079999997541
aF728.687999999753
aF728.7199999997529
aF731.0079999997475
aF732.8959999997431
aF739.3439999997281
aF742.84799999972
aF744.2399999997167
aF744.6559999997157
aF746.4319999997116
aF747.5199999997091
aF748.4799999997068
aF749.695999999704
aF750.7519999997015
aF751.4239999997
aF753.3439999996955
aF754.2239999996934
aF755.69599999969
aF758.1919999996842
aF762.4639999996742
aF762.4799999996742
aF763.1519999996726
aF766.6399999996645
aF766.6719999996644
aF767.3759999996628
aF771.4239999996533
aF772.9119999996499
aF773.4719999996486
aF775.9199999996429
aF777.567999999639
aF779.9359999996335
aF780.6559999996318
aF781.7759999996292
aF783.9199999996242
aF784.0959999996238
aF786.7039999996177
aF788.8319999996128
aF789.599999999611
aF791.1519999996074
aF793.2479999996025
aF794.1279999996004
aF795.7759999995966
aF796.8639999995941
aF796.911999999594
aF798.0959999995912
aF801.3759999995835
aF802.2399999995815
aF802.7679999995803
aF803.9039999995776
aF804.6559999995759
aF805.3599999995743
aF805.7759999995733
aF808.7679999995663
aF811.2319999995606
aF812.5439999995575
aF812.9439999995566
aF815.1679999995514
aF818.1599999995444
aF820.6239999995387
aF821.0399999995377
aF822.207999999535
aF823.039999999533
aF829.071999999519
aF830.8479999995149
aF830.9599999995146
aF832.6399999995107
aF838.511999999497
aF839.1839999994954
aF839.8239999994939
aF839.8879999994938
aF841.7119999994895
aF843.9679999994843
aF844.8159999994823
aF845.5199999994807
aF846.7999999994777
aF847.1839999994768
aF847.9199999994751
aF851.1839999994675
aF851.375999999467
aF852.6079999994641
aF853.5999999994618
aF854.8959999994588
aF857.1519999994536
aF858.5439999994503
aF860.1439999994466
aF860.9119999994448
aF861.5199999994434
aF861.7119999994429
aF863.8719999994379
aF868.6719999994267
aF875.2799999994113
aF877.3599999994065
aF877.8079999994054
aF879.4559999994016
aF879.5679999994013
aF881.5999999993966
aF882.9599999993934
aF884.6239999993895
aF885.279999999388
aF885.3599999993878
aF885.8239999993867
aF887.5839999993826
aF889.0559999993792
aF891.8719999993726
aF894.1759999993673
aF896.2399999993625
aF897.29599999936
aF898.7679999993566
aF900.0159999993537
aF900.0319999993536
aF902.4959999993479
aF906.4159999993387
aF906.8159999993378
aF908.0959999993348
aF908.863999999333
aF908.9279999993329
aF909.3919999993318
aF909.6319999993312
aF911.2639999993274
aF914.9439999993189
aF917.023999999314
aF918.2399999993112
aF919.9359999993072
aF920.9759999993048
aF923.487999999299
aF929.887999999284
aF930.9279999992816
aF931.59999999928
aF936.6879999992682
aF937.2479999992669
aF937.4239999992665
aF938.3519999992643
aF940.4159999992595
aF941.6159999992567
aF942.6079999992544
aF945.9839999992465
aF947.0079999992441
aF948.6079999992404
aF948.9759999992395
aF949.8079999992376
aF950.7839999992353
aF951.8559999992328
aF953.2799999992295
aF954.0479999992277
aF955.2799999992249
aF955.6799999992239
aF957.7119999992192
aF958.3679999992177
aF958.4159999992175
aF958.8639999992165
aF959.3279999992154
aF961.4719999992104
aF962.095999999209
aF963.2799999992062
aF963.391999999206
aF963.6319999992054
aF964.3999999992036
aF965.4719999992011
aF965.5519999992009
aF967.663999999196
aF968.0479999991951
aF968.3679999991944
aF968.7679999991934
aF973.8879999991815
aF977.2799999991736
aF977.3119999991735
aF979.8079999991677
aF980.2239999991667
aF981.3119999991642
aF982.0639999991624
aF982.4479999991615
aF984.9439999991557
aF985.8559999991536
aF986.8959999991512
aF987.9519999991487
aF988.0479999991485
aF990.8959999991418
aF991.4239999991406
aF992.095999999139
aF994.5119999991334
aF995.6319999991308
aF995.7439999991306
aF996.5119999991288
aF997.0079999991276
aF1000.7999999991188
aF1001.4879999991172
aF1002.6399999991145
aF1003.1999999991132
aF1004.0959999991111
aF1006.271999999106
aF1010.5439999990961
aF1015.3599999990848
aF1016.5119999990821
aF1019.6479999990748
aF1020.3679999990732
aF1021.2639999990711
aF1028.5279999990862
aF1029.3919999990903
aF1030.591999999096
aF1032.1439999991035
aF1032.7999999991066
aF1034.2239999991134
aF1034.783999999116
aF1035.4719999991194
aF1043.8879999991595
aF1045.7439999991684
aF1050.687999999192
aF1051.1679999991943
aF1051.311999999195
aF1053.6639999992062
aF1055.3439999992142
aF1056.0639999992177
aF1056.143999999218
aF1056.6879999992207
aF1057.6479999992252
aF1059.2319999992328
aF1060.4959999992388
aF1060.6719999992397
aF1061.583999999244
aF1063.3439999992524
aF1064.0479999992558
aF1076.2879999993143
aF1081.7919999993405
aF1084.3039999993525
aF1086.6079999993635
aF1087.4399999993675
aF1088.5439999993728
aF1090.1279999993803
aF1091.7759999993882
aF1092.0319999993894
aF1092.4479999993914
aF1092.6399999993923
aF1092.9439999993938
aF1093.0399999993942
aF1093.2959999993955
aF1096.0639999994087
aF1097.5519999994158
aF1098.2879999994193
aF1098.8959999994222
aF1100.52799999943
aF1100.6079999994304
aF1101.2319999994334
aF1102.0959999994375
aF1105.4559999994535
aF1106.0959999994566
aF1109.9199999994748
aF1110.4319999994773
aF1111.0399999994802
aF1111.0559999994803
aF1112.239999999486
aF1112.447999999487
aF1114.6559999994975
aF1116.1599999995046
aF1118.4639999995156
aF1121.8239999995317
aF1121.8559999995318
aF1124.0959999995425
aF1127.3919999995583
aF1129.2799999995673
aF1130.0319999995709
aF1132.0639999995806
aF1133.9199999995894
aF1134.463999999592
aF1136.8159999996033
aF1138.5119999996114
aF1140.6719999996217
aF1145.8239999996463
aF1146.415999999649
aF1147.3279999996535
aF1148.8799999996609
aF1149.6159999996644
aF1150.3999999996681
aF1151.231999999672
aF1162.2559999997247
aF1166.479999999745
aF1167.4719999997496
aF1167.4879999997497
aF1168.399999999754
aF1169.007999999757
aF1170.2079999997627
aF1170.3679999997635
aF1172.2719999997726
aF1173.5519999997787
aF1174.015999999781
aF1174.7199999997842
aF1175.9679999997902
aF1178.0159999998
aF1181.375999999816
aF1181.6959999998176
aF1186.4479999998402
aF1190.4639999998594
aF1193.919999999876
aF1194.127999999877
aF1194.6719999998795
aF1198.3039999998969
aF1198.5919999998982
aF1198.9599999999
aF1199.1199999999008
aF1199.2799999999015
aF1200.7359999999085
aF1200.7679999999086
aF1201.263999999911
aF1201.455999999912
aF1202.6879999999178
aF1204.0799999999244
aF1204.4639999999263
aF1205.0879999999293
aF1206.0159999999337
aF1207.2319999999395
aF1208.7679999999468
aF1210.063999999953
aF1211.935999999962
aF1213.3599999999687
aF1216.7039999999847
aF1220.4320000000025
aF1221.9200000000096
aF1224.11200000002
aF1224.720000000023
aF1226.0160000000292
aF1226.4320000000312
aF1229.6320000000464
aF1231.3280000000545
aF1234.9120000000717
aF1236.6880000000801
aF1237.056000000082
aF1237.3760000000834
aF1237.9840000000863
aF1240.1120000000965
aF1241.5520000001034
aF1242.0160000001056
aF1243.9200000001147
aF1247.5040000001318
aF1248.6880000001374
aF1250.5920000001465
aF1252.176000000154
aF1252.4160000001552
aF1253.40800000016
aF1254.2240000001639
aF1255.5520000001702
aF1257.7280000001806
aF1258.1760000001827
aF1259.3920000001885
aF1262.9120000002054
aF1263.4400000002079
aF1264.512000000213
aF1264.928000000215
aF1268.9600000002342
aF1272.480000000251
aF1273.0240000002536
aF1273.7920000002573
aF1276.5760000002706
aF1277.4240000002746
aF1278.4640000002796
aF1278.5120000002798
aF1279.376000000284
aF1281.5040000002941
aF1286.3840000003174
aF1290.0960000003352
aF1291.6320000003425
aF1292.560000000347
aF1292.800000000348
aF1293.20000000035
aF1293.3760000003508
aF1293.824000000353
aF1296.6560000003665
aF1296.7200000003668
aF1298.1120000003734
aF1298.7040000003763
aF1298.9120000003772
aF1301.5040000003896
aF1303.5520000003994
aF1306.4480000004132
aF1307.87200000042
aF1311.9360000004394
aF1326.9920000005113
aF1327.552000000514
aF1331.9200000005349
aF1334.3200000005463
aF1337.792000000563
aF1338.5120000005663
aF1339.2480000005698
aF1339.8080000005725
aF1345.1840000005982
aF1345.2480000005985
aF1349.7920000006202
aF1350.7360000006247
aF1351.0400000006262
aF1352.5920000006336
aF1353.2000000006365
aF1356.1600000006506
aF1359.1360000006648
aF1360.5280000006715
aF1361.2160000006747
aF1362.0160000006786
aF1363.0880000006837
aF1363.7120000006867
aF1365.264000000694
aF1366.3360000006992
aF1367.360000000704
aF1367.4880000007047
aF1368.4160000007091
aF1368.5280000007097
aF1369.0720000007123
aF1369.3120000007134
aF1371.0880000007219
aF1371.3760000007233
aF1372.0960000007267
aF1372.160000000727
aF1372.9440000007307
aF1373.824000000735
aF1374.688000000739
aF1375.4080000007425
aF1375.6320000007436
aF1376.1760000007462
aF1377.7760000007538
aF1378.2720000007562
aF1378.9760000007595
aF1379.5520000007623
aF1380.6880000007677
aF1381.2640000007705
aF1381.9360000007737
aF1383.6160000007817
aF1384.3520000007852
aF1385.2000000007893
aF1388.4640000008048
aF1391.7920000008207
aF1391.9840000008217
aF1392.464000000824
aF1392.8480000008258
aF1400.0640000008602
aF1400.9920000008647
aF1402.0320000008696
aF1402.11200000087
aF1402.320000000871
aF1402.928000000874
aF1404.432000000881
aF1406.720000000892
aF1407.7280000008968
aF1409.632000000906
aF1411.520000000915
aF1412.6400000009203
aF1412.8960000009215
aF1413.0720000009223
aF1414.5920000009296
aF1417.2320000009422
aF1418.8000000009497
aF1420.6720000009586
aF1420.8000000009592
aF1422.0960000009654
aF1423.2000000009707
aF1431.2800000010093
aF1432.3520000010144
aF1434.4320000010243
aF1436.9600000010364
aF1438.8800000010456
aF1439.8400000010502
aF1441.5520000010583
aF1442.5760000010632
aF1449.1360000010945
aF1450.1280000010993
aF1451.0080000011035
aF1451.3600000011052
aF1453.3280000011146
aF1454.8320000011217
aF1456.976000001132
aF1457.5680000011348
aF1458.6240000011398
aF1459.056000001142
aF1460.8640000011505
aF1462.3360000011576
aF1464.8480000011696
aF1466.1600000011758
aF1467.232000001181
aF1467.7440000011834
aF1468.3360000011862
aF1469.0240000011895
aF1472.4320000012058
aF1472.5600000012064
aF1473.7760000012122
aF1475.8720000012222
aF1477.7440000012311
aF1479.792000001241
aF1480.8160000012458
aF1484.432000001263
aF1488.1440000012808
aF1490.9760000012943
aF1491.520000001297
aF1498.5120000013303
aF1499.4400000013347
aF1500.9920000013421
aF1501.392000001344
aF1502.6880000013502
aF1507.1360000013715
aF1507.1680000013716
aF1507.9040000013752
aF1508.6240000013786
aF1509.2960000013818
aF1511.9040000013943
aF1512.2080000013957
aF1513.1360000014001
aF1514.6400000014073
aF1516.5600000014165
aF1517.5520000014212
aF1519.5200000014306
aF1520.7840000014367
aF1521.6160000014406
aF1522.320000001444
aF1523.4240000014493
aF1523.7440000014508
aF1525.6480000014599
aF1526.9760000014662
aF1530.912000001485
aF1532.5440000014928
aF1533.9680000014996
aF1540.752000001532
aF1541.2480000015344
aF1542.624000001541
aF1543.6160000015457
aF1544.4480000015496
aF1545.1040000015528
aF1545.2000000015532
aF1546.3040000015585
aF1546.9440000015616
aF1546.9600000015616
aF1547.7440000015654
aF1547.888000001566
aF1548.8320000015706
aF1549.744000001575
aF1552.6240000015887
aF1554.1120000015958
aF1555.0880000016004
aF1557.6320000016126
aF1558.4960000016167
aF1574.2240000016918
aF1574.8320000016947
aF1576.2560000017015
aF1578.8960000017141
aF1579.904000001719
aF1582.9280000017334
aF1583.6320000017367
aF1583.7280000017372
aF1584.6080000017414
aF1584.8800000017427
aF1585.8880000017475
aF1586.1600000017488
aF1591.1680000017727
aF1591.7600000017756
aF1592.4320000017788
aF1594.0160000017863
aF1596.8000000017996
aF1598.6880000018086
aF1599.9360000018146
aF1600.1120000018154
aF1602.8320000018284
aF1605.2160000018398
aF1613.7280000018804
aF1615.0720000018869
aF1616.976000001896
aF1617.8560000019002
aF1619.0240000019057
aF1619.8240000019096
aF1619.90400000191
aF1621.9680000019198
aF1623.2960000019261
aF1627.7920000019476
aF1629.5200000019559
aF1630.0480000019584
aF1633.1520000019732
aF1633.8240000019764
aF1634.9280000019817
aF1635.5200000019845
aF1638.2400000019975
aF1639.1200000020017
aF1639.2960000020025
aF1640.8320000020099
aF1646.944000002039
aF1648.0640000020444
aF1649.424000002051
aF1649.9840000020536
aF1651.4400000020605
aF1656.7040000020856
aF1657.1200000020876
aF1657.408000002089
aF1657.5040000020895
aF1658.3360000020934
aF1659.5840000020994
aF1659.9840000021013
aF1660.8640000021055
aF1661.4400000021083
aF1662.9440000021154
aF1663.4080000021177
aF1663.680000002119
aF1664.2080000021215
aF1668.3840000021414
aF1669.0560000021446
aF1676.5120000021802
aF1679.6480000021952
aF1681.4240000022037
aF1683.808000002215
aF1684.4480000022181
aF1685.6160000022237
aF1686.736000002229
aF1689.9520000022444
aF1690.5600000022473
aF1695.2800000022698
aF1698.1920000022837
aF1698.4160000022848
aF1700.4640000022946
aF1703.2160000023077
aF1705.2640000023175
aF1708.0640000023309
aF1708.6240000023336
aF1710.0000000023401
aF1712.5440000023523
aF1713.2480000023556
aF1713.968000002359
aF1717.0240000023737
aF1717.1840000023744
aF1718.4160000023803
aF1719.0400000023833
aF1720.1920000023888
aF1721.3920000023945
aF1722.336000002399
aF1722.9120000024018
aF1723.1360000024029
aF1724.9920000024117
aF1726.4800000024188
aF1727.6000000024242
aF1728.1600000024268
aF1728.4480000024282
aF1729.4080000024328
aF1729.472000002433
aF1729.9200000024352
aF1731.552000002443
aF1732.7680000024488
aF1734.464000002457
aF1736.576000002467
aF1737.1520000024698
aF1737.2480000024702
aF1738.0640000024741
aF1738.1440000024745
aF1738.448000002476
aF1738.896000002478
aF1739.520000002481
aF1741.3440000024898
aF1742.9920000024977
aF1744.8160000025064
aF1745.4240000025093
aF1745.6320000025103
aF1745.7280000025107
aF1746.4480000025142
aF1747.7760000025205
aF1748.3840000025234
aF1749.9200000025307
aF1753.4080000025474
aF1754.0160000025503
aF1756.2240000025608
aF1757.0400000025647
aF1757.536000002567
aF1760.448000002581
aF1762.0000000025884
aF1765.3120000026042
aF1768.7360000026206
aF1773.2640000026422
aF1773.8080000026448
aF1774.4320000026478
aF1774.672000002649
aF1777.200000002661
aF1780.9440000026789
aF1784.8000000026973
aF1786.832000002707
aF1787.44000000271
aF1787.7760000027115
aF1789.7120000027207
aF1790.832000002726
aF1791.3120000027284
aF1792.4320000027337
aF1793.2320000027375
aF1794.384000002743
aF1799.7440000027686
aF1802.0480000027796
aF1802.6720000027826
aF1804.3520000027906
aF1807.4400000028054
aF1813.5040000028343
aF1816.6880000028495
aF1816.78400000285
aF1818.0640000028561
aF1820.7040000028687
aF1823.504000002882
aF1823.7920000028835
aF1827.9360000029033
aF1828.8800000029078
aF1830.3040000029146
aF1830.5760000029159
aF1831.3120000029194
aF1832.0160000029227
aF1834.160000002933
aF1834.8800000029364
aF1835.64800000294
aF1836.8640000029459
aF1839.1360000029567
aF1839.9360000029606
aF1840.672000002964
aF1841.264000002967
aF1843.792000002979
aF1845.5360000029873
aF1847.3120000029958
aF1848.608000003002
aF1849.0720000030042
aF1849.248000003005
aF1849.6960000030072
aF1851.0400000030136
aF1851.9360000030179
aF1855.0560000030328
aF1855.328000003034
aF1855.936000003037
aF1856.6240000030402
aF1857.392000003044
aF1859.7600000030552
aF1860.4160000030583
aF1861.408000003063
aF1862.0640000030662
aF1864.4000000030774
aF1866.7200000030884
aF1868.6880000030978
aF1870.000000003104
aF1871.008000003109
aF1871.856000003113
aF1872.704000003117
aF1873.6640000031216
aF1874.384000003125
aF1876.4320000031348
aF1877.712000003141
aF1877.7600000031412
aF1878.976000003147
aF1881.1840000031575
aF1881.8720000031608
aF1883.1360000031668
aF1884.032000003171
aF1886.336000003182
aF1887.3280000031868
aF1887.5040000031877
aF1888.9440000031946
aF1889.7600000031985
aF1890.8800000032038
aF1891.4720000032066
aF1895.104000003224
aF1897.0240000032331
aF1898.032000003238
aF1898.5760000032406
aF1899.1680000032434
aF1901.1200000032527
aF1904.112000003267
aF1904.304000003268
aF1905.7120000032746
aF1906.9280000032804
aF1907.872000003285
aF1910.3360000032967
aF1914.1440000033149
aF1915.648000003322
aF1917.520000003331
aF1917.8080000033324
aF1918.6240000033363
aF1923.60000000336
aF1924.240000003363
aF1924.9760000033666
aF1928.0960000033815
aF1929.6160000033888
aF1931.328000003397
aF1935.2800000034158
aF1938.1920000034297
aF1939.0080000034336
aF1943.9840000034574
aF1944.54400000346
aF1945.2160000034633
aF1945.392000003464
aF1946.192000003468
aF1947.488000003474
aF1948.5440000034791
aF1949.4080000034833
aF1952.512000003498
aF1954.160000003506
aF1955.856000003514
aF1957.6480000035226
aF1961.1200000035392
aF1964.7680000035566
aF1965.5360000035603
aF1965.5680000035604
aF1966.8320000035665
aF1968.000000003572
aF1968.0320000035722
aF1968.0480000035723
aF1969.0880000035772
aF1969.1360000035775
aF1969.7120000035802
aF1971.2800000035877
aF1971.8720000035905
aF1973.440000003598
aF1974.1600000036015
aF1974.4320000036028
aF1977.008000003615
aF1979.088000003625
aF1979.1840000036254
aF1980.6240000036323
aF1982.1600000036397
aF1982.3040000036403
aF1986.5600000036607
aF1986.640000003661
aF1990.9120000036814
aF1992.064000003687
aF1993.0080000036914
aF1993.6800000036947
aF1994.3520000036979
aF1994.368000003698
aF1994.9280000037006
aF1995.8880000037052
aF1997.728000003714
aF1998.3040000037167
aF1999.2640000037213
aF1999.9360000037245
aF2000.7680000037285
aF2002.3040000037358
aF2005.6160000037517
aF2006.112000003754
aF2006.8960000037578
aF2006.960000003758
aF2008.1280000037636
aF2009.5840000037706
aF2013.64800000379
aF2019.1840000038164
aF2021.5040000038275
aF2025.2640000038455
aF2025.2960000038456
aF2026.20800000385
aF2029.136000003864
aF2032.096000003878
aF2032.3520000038793
aF2033.6640000038856
aF2035.2640000038932
aF2035.8720000038961
aF2038.78400000391
aF2039.7600000039147
aF2042.0480000039256
aF2042.560000003928
aF2042.736000003929
aF2042.9120000039297
aF2044.9760000039396
aF2048.7680000039577
aF2049.6160000039617
aF2051.168000003969
aF2052.144000003974
aF2055.3920000039893
aF2055.4560000039896
aF2057.024000003997
aF2057.808000004001
aF2060.816000004015
aF2063.0240000040258
aF2064.352000004032
aF2066.832000004044
aF2070.1440000040598
aF2072.1760000040695
aF2072.704000004072
aF2074.8640000040823
aF2075.7760000040867
aF2076.8160000040916
aF2084.656000004129
aF2085.040000004131
aF2085.7440000041343
aF2087.5200000041427
aF2089.280000004151
aF2091.360000004161
aF2093.7280000041724
aF2095.6320000041815
aF2095.952000004183
aF2096.0960000041837
aF2096.3040000041847
aF2096.9280000041877
aF2098.0000000041928
aF2098.5600000041954
aF2100.0480000042025
aF2100.752000004206
aF2101.0880000042075
aF2103.472000004219
aF2103.8240000042206
aF2104.3840000042233
aF2104.8320000042254
aF2105.5360000042288
aF2107.9680000042404
aF2108.5920000042433
aF2112.6400000042627
aF2113.584000004267
aF2117.296000004285
aF2117.776000004287
aF2118.176000004289
aF2120.3200000042993
aF2120.3520000042995
aF2120.3840000042997
aF2122.52800000431
aF2123.1040000043126
aF2124.240000004318
aF2125.8240000043256
aF2126.6400000043295
aF2130.2400000043467
aF2131.936000004355
aF2134.656000004368
aF2135.344000004371
aF2139.5680000043913
aF2139.5680000043913
aF2139.8240000043925
aF2140.0960000043938
aF2144.0320000044126
aF2145.0720000044175
aF2146.5120000044244
aF2147.024000004427
aF2147.232000004428
aF2149.2640000044375
aF2151.040000004446
aF2153.9040000044597
aF2154.608000004463
aF2156.4160000044717
aF2161.8560000044977
aF2167.0400000045224
aF2167.616000004525
aF2168.384000004529
aF2170.528000004539
aF2171.936000004546
aF2172.5440000045487
aF2174.6240000045586
aF2176.000000004565
aF2177.216000004571
aF2179.328000004581
aF2180.768000004588
aF2184.4320000046055
aF2185.4400000046103
aF2186.1600000046137
aF2188.528000004625
aF2190.5120000046345
aF2190.592000004635
aF2191.9680000046415
aF2193.360000004648
aF2194.1120000046517
aF2195.1360000046566
aF2195.5200000046584
aF2195.680000004659
aF2196.256000004662
aF2197.296000004667
aF2198.0320000046704
aF2199.9360000046795
aF2200.224000004681
aF2201.1360000046852
aF2201.952000004689
aF2205.504000004706
aF2206.944000004713
aF2208.4960000047204
aF2209.7760000047265
aF2210.6560000047307
aF2214.2080000047476
aF2215.712000004755
aF2215.936000004756
aF2216.416000004758
aF2217.168000004762
aF2217.7760000047647
aF2217.7760000047647
aF2219.5840000047733
aF2222.1280000047855
aF2222.3360000047865
aF2228.1920000048144
aF2230.016000004823
aF2231.904000004832
aF2237.0400000048567
aF2243.792000004889
aF2245.1840000048956
aF2245.8080000048985
aF2249.056000004914
aF2253.856000004937
aF2256.59200000495
aF2257.184000004953
aF2257.7600000049556
aF2259.4400000049636
aF2260.2560000049675
aF2263.888000004985
aF2265.136000004991
aF2265.776000004994
aF2265.840000004994
aF2267.4080000050017
aF2268.9920000050092
aF2269.392000005011
aF2272.7680000050273
aF2273.568000005031
aF2277.7920000050512
aF2279.456000005059
aF2280.016000005062
aF2281.328000005068
aF2282.160000005072
aF2282.784000005075
aF2284.9280000050853
aF2287.5200000050977
aF2287.9040000050995
aF2288.1440000051007
aF2289.1360000051054
aF2290.496000005112
aF2291.2320000051154
aF2292.2400000051202
aF2292.9280000051235
aF2297.216000005144
aF2300.2240000051584
aF2300.54400000516
aF2302.3200000051684
aF2303.8080000051755
aF2305.7280000051846
aF2311.920000005214
aF2315.472000005231
aF2316.5920000052365
aF2319.232000005249
aF2322.112000005263
aF2322.8480000052664
aF2324.5600000052746
aF2325.1680000052775
aF2325.4080000052786
aF2325.520000005279
aF2328.3360000052926
aF2329.248000005297
aF2332.0960000053105
aF2332.9440000053146
aF2336.2400000053303
aF2337.0720000053343
aF2337.184000005335
aF2338.8160000053426
aF2339.344000005345
aF2339.3760000053453
aF2339.488000005346
aF2340.35200000535
aF2340.8320000053523
aF2342.640000005361
aF2343.4240000053646
aF2345.9200000053766
aF2346.9600000053815
aF2351.424000005403
aF2352.080000005406
aF2352.8320000054096
aF2354.352000005417
aF2356.3840000054265
aF2357.4240000054315
aF2358.560000005437
aF2360.512000005446
aF2361.3920000054504
aF2364.272000005464
aF2364.9440000054674
aF2365.50400000547
aF2366.304000005474
aF2366.8960000054767
aF2367.808000005481
aF2370.6240000054945
aF2373.9360000055103
aF2374.5600000055133
aF2375.2800000055167
aF2379.4080000055365
aF2379.696000005538
aF2381.792000005548
aF2382.480000005551
aF2388.304000005579
aF2388.336000005579
aF2389.0400000055824
aF2389.808000005586
aF2391.1040000055923
aF2393.2000000056023
aF2393.8880000056056
aF2395.248000005612
aF2396.672000005619
aF2398.400000005627
aF2398.99200000563
aF2399.248000005631
aF2400.480000005637
aF2400.6240000056378
aF2402.944000005649
aF2410.736000005686
aF2411.4240000056893
aF2414.9920000057064
aF2417.472000005718
aF2419.2640000057268
aF2419.760000005729
aF2421.008000005735
aF2422.416000005742
aF2423.888000005749
aF2425.6800000057574
aF2427.712000005767
aF2430.41600000578
aF2440.640000005829
aF2441.696000005834
aF2442.2880000058367
aF2442.768000005839
aF2443.00800000584
aF2447.4720000058614
aF2447.776000005863
aF2454.4320000058947
aF2455.3920000058993
aF2458.1760000059126
aF2462.5920000059336
aF2464.944000005945
aF2468.8320000059634
aF2469.184000005965
aF2470.432000005971
aF2474.9280000059925
aF2475.424000005995
aF2476.7680000060013
aF2478.56000000601
aF2480.048000006017
aF2481.0080000060216
aF2482.400000006028
aF2483.152000006032
aF2483.840000006035
aF2484.89600000604
aF2488.4960000060573
aF2489.280000006061
aF2489.7760000060634
aF2491.360000006071
aF2491.8400000060733
aF2492.2880000060754
aF2493.5520000060815
aF2493.9360000060833
aF2497.264000006099
aF2498.512000006105
aF2500.2400000061134
aF2502.464000006124
aF2502.624000006125
aF2503.4400000061287
aF2505.9680000061408
aF2506.3520000061426
aF2506.7680000061446
aF2506.9920000061456
aF2507.072000006146
aF2507.90400000615
aF2508.4800000061527
aF2509.152000006156
aF2513.2640000061756
aF2514.2400000061803
aF2515.232000006185
aF2515.440000006186
aF2518.4480000062003
aF2519.008000006203
aF2519.616000006206
aF2522.368000006219
aF2527.3280000062427
aF2528.8960000062502
aF2529.056000006251
aF2530.0320000062557
aF2532.9440000062696
aF2533.1840000062707
aF2533.7600000062735
aF2534.4320000062767
aF2534.8320000062786
aF2535.744000006283
aF2535.8400000062834
aF2536.3360000062858
aF2536.7520000062877
aF2538.928000006298
aF2540.0480000063035
aF2542.9600000063174
aF2543.3600000063193
aF2544.2720000063237
aF2546.1280000063325
aF2546.3360000063335
aF2547.6000000063395
aF2549.7120000063496
aF2549.76000000635
aF2550.3680000063528
aF2551.5840000063586
aF2551.632000006359
aF2555.0880000063753
aF2556.4000000063816
aF2558.4320000063913
aF2561.056000006404
aF2561.296000006405
aF2561.4560000064057
aF2562.560000006411
aF2563.8880000064173
aF2564.9760000064225
aF2566.736000006431
aF2569.872000006446
aF2572.9760000064607
aF2574.1440000064663
aF2575.504000006473
aF2576.800000006479
aF2577.7440000064835
aF2579.2160000064905
aF2580.7360000064978
aF2581.3120000065005
aF2584.112000006514
aF2588.560000006535
aF2589.168000006538
aF2594.416000006563
aF2595.424000006568
aF2598.2720000065815
aF2600.9440000065943
aF2602.7200000066027
aF2603.2480000066053
aF2604.448000006611
aF2605.056000006614
aF2605.2160000066146
aF2605.280000006615
aF2606.736000006622
aF2607.0400000066234
aF2608.1120000066285
aF2609.2000000066337
aF2609.856000006637
aF2611.5040000066447
aF2613.7280000066553
aF2614.512000006659
aF2614.7840000066603
aF2616.192000006667
aF2617.3760000066727
aF2618.080000006676
aF2619.8560000066846
aF2620.4320000066873
aF2621.2960000066914
aF2621.9680000066946
aF2624.112000006705
aF2624.6720000067075
aF2624.7040000067077
aF2625.5520000067118
aF2625.568000006712
aF2625.9360000067136
aF2629.3120000067297
aF2630.3040000067344
aF2631.264000006739
aF2632.0320000067427
aF2633.152000006748
aF2635.248000006758
aF2638.9280000067756
aF2640.880000006785
aF2642.6400000067933
aF2642.736000006794
aF2643.5200000067975
aF2644.7360000068034
aF2646.0800000068098
aF2646.592000006812
aF2646.768000006813
aF2647.184000006815
aF2648.1280000068195
aF2649.5520000068263
aF2650.112000006829
aF2650.3680000068302
aF2651.0400000068335
aF2652.9440000068425
aF2654.112000006848
aF2655.360000006854
aF2656.6880000068604
aF2659.2160000068725
aF2660.6560000068794
aF2661.008000006881
aF2661.9200000068854
aF2663.920000006895
aF2664.736000006899
aF2665.3280000069017
aF2666.240000006906
aF2666.624000006908
aF2667.4400000069118
aF2667.6320000069127
aF2668.4640000069166
aF2668.8160000069183
aF2671.29600000693
aF2672.2080000069345
aF2673.6320000069413
aF2673.6640000069415
aF2674.3200000069446
aF2676.112000006953
aF2676.4480000069548
aF2676.8000000069565
aF2677.3920000069593
aF2677.52000000696
aF2678.0960000069626
aF2678.1120000069627
aF2680.304000006973
aF2682.992000006986
aF2684.032000006991
aF2686.8960000070047
aF2687.8880000070094
aF2688.448000007012
aF2688.5760000070127
aF2688.640000007013
aF2689.056000007015
aF2689.5680000070174
aF2691.4720000070265
aF2692.1440000070297
aF2692.800000007033
aF2692.816000007033
aF2692.864000007033
aF2693.7280000070373
aF2693.8080000070377
aF2694.1760000070394
aF2694.9920000070433
aF2698.7840000070614
aF2699.6800000070657
aF2701.7120000070754
aF2702.432000007079
aF2703.904000007086
aF2704.0480000070866
aF2706.048000007096
aF2706.0960000070963
aF2706.672000007099
aF2711.2000000071207
aF2714.160000007135
aF2717.744000007152
aF2719.200000007159
aF2719.840000007162
aF2721.0240000071676
aF2724.224000007183
aF2729.9840000072104
aF2730.6400000072135
aF2730.720000007214
aF2731.0560000072155
aF2731.5200000072177
aF2731.8720000072194
aF2733.3760000072266
aF2735.152000007235
aF2735.4240000072364
aF2735.5040000072368
aF2736.2720000072404
aF2738.880000007253
aF2739.4080000072554
aF2740.36800000726
aF2744.2080000072783
aF2744.768000007281
aF2746.1280000072875
aF2746.1440000072876
aF2747.952000007296
aF2749.152000007302
aF2750.432000007308
aF2752.6080000073184
aF2753.568000007323
aF2754.4640000073273
aF2754.832000007329
aF2757.8400000073434
aF2758.0320000073443
aF2759.456000007351
aF2761.4080000073604
aF2762.0320000073634
aF2764.3840000073747
aF2765.3440000073792
aF2768.032000007392
aF2768.7680000073956
aF2769.088000007397
aF2773.84000000742
aF2774.1760000074214
aF2778.944000007444
aF2779.1680000074452
aF2779.4880000074468
aF2779.920000007449
aF2783.264000007465
aF2784.2880000074697
aF2784.2880000074697
aF2784.752000007472
aF2785.5200000074756
aF2786.8000000074817
aF2787.6480000074857
aF2787.8240000074866
aF2788.2400000074886
aF2789.6480000074953
aF2790.6400000075
aF2794.3520000075177
aF2795.200000007522
aF2795.840000007525
aF2799.0880000075404
aF2799.616000007543
aF2801.2480000075507
aF2802.0480000075545
aF2803.584000007562
aF2806.8320000075773
aF2814.0000000076116
aF2814.0160000076116
aF2814.080000007612
aF2815.136000007617
aF2816.2880000076225
aF2818.304000007632
aF2818.864000007635
aF2819.8240000076394
aF2824.976000007664
aF2825.568000007667
aF2829.376000007685
aF2830.208000007689
aF2833.2320000077034
aF2834.224000007708
aF2834.864000007711
aF2835.904000007716
aF2835.920000007716
aF2837.2640000077226
aF2839.632000007734
aF2840.6080000077386
aF2841.120000007741
aF2845.3760000077614
aF2854.8000000078064
aF2860.2240000078323
aF2861.9360000078404
aF2869.392000007876
aF2870.432000007881
aF2872.512000007891
aF2873.408000007895
aF2875.9840000079075
aF2876.5760000079104
aF2879.6960000079252
aF2880.3200000079282
aF2880.928000007931
aF2885.504000007953
aF2888.1440000079656
aF2891.2640000079805
aF2891.9200000079836
aF2894.8480000079976
aF2899.328000008019
aF2901.4880000080293
aF2904.0960000080418
aF2905.2640000080473
aF2905.80800000805
aF2909.0720000080655
aF2911.1680000080755
aF2911.3280000080763
aF2911.936000008079
aF2912.08000000808
aF2913.552000008087
aF2916.3520000081003
aF2919.024000008113
aF2920.288000008119
aF2921.1680000081233
aF2921.6160000081254
aF2923.024000008132
aF2926.0640000081466
aF2926.6400000081494
aF2929.2000000081616
aF2931.8880000081745
aF2932.7520000081786
aF2933.424000008182
aF2935.2320000081904
aF2936.3040000081955
aF2936.5440000081967
aF2938.240000008205
aF2939.36000000821
aF2942.5760000082255
aF2943.296000008229
aF2943.7920000082313
aF2944.368000008234
aF2944.800000008236
aF2945.0880000082375
aF2948.8640000082555
aF2950.7840000082647
aF2951.072000008266
aF2955.008000008285
aF2955.712000008288
aF2956.1440000082903
aF2956.752000008293
aF2957.9040000082987
aF2959.8080000083078
aF2962.0640000083185
aF2963.7120000083264
aF2964.8000000083316
aF2965.712000008336
aF2965.8080000083364
aF2968.1120000083474
aF2968.9120000083512
aF2969.472000008354
aF2969.696000008355
aF2971.6800000083645
aF2971.808000008365
aF2972.1120000083665
aF2972.256000008367
aF2974.0000000083755
aF2976.144000008386
aF2976.3040000083865
aF2977.3440000083915
aF2978.240000008396
aF2980.0480000084044
aF2983.088000008419
aF2989.344000008449
aF2992.512000008464
aF2994.6880000084743
aF2996.1760000084814
aF2998.768000008494
aF3001.120000008505
aF3001.6640000085076
aF3001.984000008509
aF3002.400000008511
aF3002.4800000085115
aF3003.632000008517
aF3005.6000000085264
aF3006.960000008533
aF3009.296000008544
aF3011.408000008554
aF3018.1280000085862
aF3018.4000000085875
aF3021.5840000086027
aF3021.872000008604
aF3022.928000008609
aF3026.448000008626
aF3030.256000008644
aF3032.0000000086525
aF3033.61600000866
aF3036.9920000086763
aF3037.536000008679
aF3038.1120000086817
aF3041.696000008699
aF3042.8800000087044
aF3043.840000008709
aF3045.2480000087157
aF3047.568000008727
aF3048.640000008732
aF3048.656000008732
aF3051.568000008746
aF3052.816000008752
aF3053.872000008757
aF3054.704000008761
aF3055.360000008764
aF3058.064000008777
aF3059.792000008785
aF3062.656000008799
aF3063.2160000088015
aF3064.4960000088076
aF3066.3520000088165
aF3068.0640000088247
aF3069.7120000088325
aF3070.432000008836
aF3070.9600000088385
aF3071.8080000088426
aF3072.080000008844
aF3072.4480000088456
aF3072.6400000088465
aF3073.968000008853
aF3074.176000008854
aF3074.192000008854
aF3080.3360000088833
aF3080.9600000088863
aF3082.7200000088947
aF3084.272000008902
aF3085.696000008909
aF3085.8720000089097
aF3087.632000008918
aF3089.104000008925
aF3092.1440000089397
aF3092.19200000894
aF3094.2560000089497
aF3096.0640000089584
aF3097.216000008964
aF3097.9200000089672
aF3097.9840000089675
aF3098.49600000897
aF3099.520000008975
aF3101.7280000089854
aF3102.7360000089902
aF3105.200000009002
aF3107.680000009014
aF3108.592000009018
aF3109.3120000090216
aF3109.9520000090247
aF3111.4080000090316
aF3111.888000009034
aF3112.0320000090346
aF3112.2080000090355
aF3115.072000009049
aF3118.400000009065
aF3119.696000009071
aF3120.7840000090764
aF3124.096000009092
aF3128.272000009112
aF3129.520000009118
aF3130.8640000091245
aF3131.392000009127
aF3132.256000009131
aF3135.4240000091463
aF3136.4640000091513
aF3136.4640000091513
aF3137.1680000091546
aF3138.1440000091593
aF3138.3840000091604
aF3138.880000009163
aF3139.792000009167
aF3140.6720000091714
aF3141.024000009173
aF3142.944000009182
aF3146.5440000091994
aF3146.832000009201
aF3148.352000009208
aF3150.89600000922
aF3156.5920000092474
aF3159.3440000092605
aF3160.7520000092672
aF3160.9600000092682
aF3161.34400000927
aF3161.920000009273
aF3162.352000009275
aF3165.4080000092895
aF3166.0960000092928
aF3169.280000009308
aF3170.720000009315
aF3171.4560000093184
aF3172.7520000093245
aF3174.5920000093333
aF3175.2960000093367
aF3175.4080000093372
aF3176.3200000093416
aF3176.9440000093446
aF3177.5360000093474
aF3178.688000009353
aF3179.568000009357
aF3181.5680000093666
aF3185.024000009383
aF3186.48000000939
aF3188.5920000094
aF3189.984000009407
aF3190.5440000094095
aF3190.8000000094107
aF3192.112000009417
aF3193.328000009423
aF3195.5680000094335
aF3196.97600000944
aF3198.832000009449
aF3199.408000009452
aF3199.9840000094546
aF3201.10400000946
aF3202.192000009465
aF3205.088000009479
aF3206.192000009484
aF3209.6480000095007
aF3210.8320000095064
aF3212.7680000095156
aF3218.0320000095408
aF3219.360000009547
aF3220.5280000095527
aF3224.19200000957
aF3226.9920000095835
aF3229.7600000095968
aF3232.3840000096093
aF3233.2800000096136
aF3239.424000009643
aF3239.696000009644
aF3240.480000009648
aF3241.296000009652
aF3242.0480000096554
aF3242.9120000096596
aF3243.5360000096625
aF3244.272000009666
aF3245.6800000096728
aF3255.9360000097217
aF3257.6160000097298
aF3259.312000009738
aF3268.2400000097805
aF3269.1040000097846
aF3272.2400000097996
aF3272.4480000098006
aF3275.008000009813
aF3276.49600000982
aF3277.6960000098256
aF3279.3120000098334
aF3280.4000000098385
aF3281.504000009844
aF3283.184000009852
aF3287.02400000987
aF3288.480000009877
aF3290.0320000098845
aF3292.7040000098973
aF3294.944000009908
aF3295.168000009909
aF3295.9200000099127
aF3297.680000009921
aF3301.8080000099408
aF3301.9840000099416
aF3302.912000009946
aF3303.088000009947
aF3305.1040000099565
aF3306.864000009965
aF3307.4080000099675
aF3309.7120000099785
aF3311.8240000099886
aF3312.4800000099917
aF3315.3120000100052
aF3315.4080000100057
aF3323.408000010044
aF3324.064000010047
aF3324.256000010048
aF3327.7600000100647
aF3328.9920000100706
aF3329.248000010072
aF3330.6560000100785
aF3330.800000010079
aF3332.1280000100855
aF3334.3680000100962
aF3335.4240000101013
aF3335.9200000101036
aF3337.3120000101103
aF3338.704000010117
aF3340.432000010125
aF3341.6960000101312
aF3345.1200000101476
aF3345.60000001015
aF3348.2080000101623
aF3349.216000010167
aF3349.600000010169
aF3353.136000010186
aF3353.792000010189
aF3355.888000010199
aF3356.2400000102007
aF3357.6480000102074
aF3358.24000001021
aF3360.8000000102224
aF3364.8320000102417
aF3365.4720000102448
aF3365.8720000102467
aF3367.376000010254
aF3367.408000010254
aF3375.808000010294
aF3376.7040000102984
aF3383.2480000103296
aF3383.920000010333
aF3384.5280000103357
aF3384.8640000103373
aF3387.47200001035
aF3393.0560000103765
aF3396.496000010393
aF3397.2000000103963
aF3398.368000010402
aF3399.1040000104053
aF3400.880000010414
aF3401.4400000104165
aF3402.7200000104226
aF3404.1120000104293
aF3406.38400001044
aF3407.1040000104435
aF3408.1920000104487
aF3408.832000010452
aF3409.248000010454
aF3410.8480000104614
aF3410.928000010462
aF3414.72000001048
aF3417.904000010495
aF3420.144000010506
aF3420.384000010507
aF3420.784000010509
aF3421.3760000105117
aF3422.0000000105147
aF3425.1520000105297
aF3425.5200000105315
aF3428.2080000105443
aF3429.7120000105515
aF3430.1440000105536
aF3431.120000010558
aF3431.2160000105587
aF3431.6320000105607
aF3433.4560000105694
aF3434.7040000105753
aF3435.3760000105785
aF3436.0160000105816
aF3436.704000010585
aF3436.8800000105857
aF3437.2480000105875
aF3437.6160000105892
aF3439.072000010596
aF3439.3600000105976
aF3439.5680000105986
aF3440.3680000106024
aF3440.6240000106036
aF3440.896000010605
aF3442.8640000106143
aF3444.1120000106202
aF3447.5200000106365
aF3447.5680000106368
aF3448.20800001064
aF3454.784000010671
aF3455.9360000106767
aF3456.60800001068
aF3459.2640000106926
aF3459.728000010695
aF3461.488000010703
aF3464.7360000107187
aF3464.752000010719
aF3466.640000010728
aF3467.4080000107315
aF3468.112000010735
aF3469.392000010741
aF3469.584000010742
aF3470.1440000107445
aF3470.448000010746
aF3472.2080000107544
aF3472.8000000107572
aF3476.5920000107753
aF3478.5280000107846
aF3480.6080000107945
aF3482.4960000108035
aF3482.9440000108057
aF3488.1920000108307
aF3488.5920000108326
aF3490.4000000108413
aF3490.592000010842
aF3491.3120000108456
aF3492.3520000108506
aF3493.0080000108537
aF3493.6160000108566
aF3496.46400001087
aF3496.7360000108715
aF3498.8800000108818
aF3502.864000010901
aF3503.520000010904
aF3505.9840000109157
aF3506.92800001092
aF3508.160000010926
aF3508.800000010929
aF3509.824000010934
aF3511.08800001094
aF3511.280000010941
aF3513.5200000109517
aF3517.744000010972
aF3518.9280000109775
aF3519.9360000109823
aF3521.4080000109893
aF3524.928000011006
aF3524.9920000110064
aF3525.6480000110096
aF3527.4880000110184
aF3533.3280000110462
aF3536.0960000110595
aF3537.7760000110675
aF3540.0960000110786
aF3540.832000011082
aF3541.232000011084
aF3541.8080000110867
aF3541.9200000110873
aF3550.0960000111263
aF3550.1920000111268
aF3550.8160000111297
aF3551.888000011135
aF3552.6240000111384
aF3555.5520000111524
aF3559.4080000111708
aF3560.464000011176
aF3561.584000011181
aF3565.328000011199
aF3567.1520000112077
aF3571.184000011227
aF3571.82400001123
aF3572.7040000112343
aF3573.1520000112364
aF3573.9840000112404
aF3574.960000011245
aF3576.448000011252
aF3577.072000011255
aF3577.7920000112586
aF3580.7200000112725
aF3581.3280000112754
aF3581.424000011276
aF3584.2880000112896
aF3584.752000011292
aF3584.9120000112925
aF3585.1360000112936
aF3585.9200000112974
aF3586.5280000113003
aF3589.4880000113144
aF3591.088000011322
aF3592.78400001133
aF3594.1600000113367
aF3595.920000011345
aF3598.0480000113553
aF3599.216000011361
aF3600.704000011368
aF3601.296000011371
aF3601.536000011372
aF3602.352000011376
aF3602.592000011377
aF3606.576000011396
aF3607.4560000114
aF3608.464000011405
aF3610.8160000114162
aF3611.232000011418
aF3615.4240000114382
aF3616.800000011445
aF3619.9040000114596
aF3621.472000011467
aF3621.9680000114695
aF3623.6480000114775
aF3624.800000011483
aF3630.048000011508
aF3630.7360000115114
aF3630.8160000115117
aF3631.7760000115163
aF3632.800000011521
aF3634.7520000115305
aF3636.0160000115366
aF3636.8320000115405
aF3638.016000011546
aF3639.024000011551
aF3639.1040000115513
aF3639.5840000115536
aF3642.5440000115677
aF3643.1360000115706
aF3643.424000011572
aF3644.688000011578
aF3645.568000011582
aF3648.704000011597
aF3649.744000011602
aF3651.42400001161
aF3653.6480000116208
aF3656.032000011632
aF3656.6880000116353
aF3659.168000011647
aF3659.8560000116504
aF3662.304000011662
aF3664.832000011674
aF3667.712000011688
aF3670.1120000116994
aF3670.7360000117023
aF3671.264000011705
aF3674.1120000117185
aF3674.864000011722
aF3675.7600000117263
aF3677.776000011736
aF3681.2320000117525
aF3681.600000011754
aF3682.6560000117593
aF3683.216000011762
aF3683.5200000117634
aF3686.400000011777
aF3687.0720000117803
aF3687.1040000117805
aF3687.664000011783
aF3689.6160000117925
aF3693.7760000118124
aF3695.0560000118185
aF3695.4400000118203
aF3695.808000011822
aF3696.9280000118274
aF3698.8160000118364
aF3700.4960000118444
aF3701.040000011847
aF3702.3360000118532
aF3704.2560000118624
aF3704.2880000118626
aF3705.056000011866
aF3705.6960000118693
aF3706.512000011873
aF3707.088000011876
aF3707.96800001188
aF3711.088000011895
aF3712.8640000119035
aF3714.5760000119117
aF3715.1840000119146
aF3715.232000011915
aF3715.264000011915
aF3715.456000011916
aF3720.6080000119405
aF3721.728000011946
aF3722.3360000119487
aF3722.416000011949
aF3724.65600001196
aF3726.0320000119664
aF3726.192000011967
aF3728.656000011979
aF3730.0160000119854
aF3731.200000011991
aF3731.4720000119923
aF3733.056000012
aF3735.3280000120108
aF3735.408000012011
aF3735.968000012014
aF3736.256000012015
aF3736.7040000120173
aF3737.472000012021
aF3738.288000012025
aF3738.512000012026
aF3739.0560000120286
aF3739.6640000120315
aF3742.272000012044
aF3742.752000012046
aF3744.576000012055
aF3745.5520000120596
aF3747.74400001207
aF3750.1280000120814
aF3751.1840000120865
aF3751.4400000120877
aF3752.144000012091
aF3752.160000012091
aF3753.2480000120963
aF3753.568000012098
aF3753.8720000120993
aF3754.816000012104
aF3755.3920000121066
aF3755.456000012107
aF3755.936000012109
aF3757.6800000121175
aF3758.5120000121215
aF3759.264000012125
aF3760.2400000121297
aF3760.8800000121328
aF3761.0080000121334
aF3761.8400000121374
aF3763.7280000121464
aF3766.832000012161
aF3767.0720000121623
aF3770.78400001218
aF3779.15200001222
aF3779.4080000122212
aF3782.752000012237
aF3789.4720000122693
aF3791.5840000122794
aF3798.5760000123128
aF3799.7920000123186
aF3801.344000012326
aF3802.640000012332
aF3803.408000012336
aF3805.4400000123455
aF3805.984000012348
aF3811.824000012376
aF3812.496000012379
aF3813.0080000123817
aF3814.4480000123885
aF3816.240000012397
aF3816.464000012398
aF3816.8320000124
aF3816.8800000124
aF3820.416000012417
aF3821.3440000124215
aF3825.824000012443
a.