(lp0
F6.784000000000005
aF12.32000000000001
aF12.49600000000001
aF12.94400000000001
aF14.16000000000001
aF15.744000000000012
aF20.255999999999542
aF20.863999999999475
aF21.519999999999403
aF24.62399999999906
aF29.34399999999854
aF29.567999999998516
aF34.71999999999795
aF34.89599999999793
aF35.08799999999791
aF36.159999999997794
aF36.607999999997745
aF39.791999999997394
aF39.85599999999739
aF40.52799999999731
aF41.775999999997175
aF43.90399999999694
aF43.967999999996934
aF44.62399999999686
aF47.503999999996545
aF48.23999999999646
aF48.97599999999638
aF49.64799999999631
aF50.223999999996245
aF50.55999999999621
aF50.6239999999962
aF52.91199999999595
aF55.26399999999569
aF56.63999999999554
aF57.039999999995494
aF57.63199999999543
aF59.311999999995244
aF62.27199999999492
aF63.119999999994825
aF63.15199999999482
aF64.75199999999498
aF69.0079999999964
aF72.07999999999743
aF72.71999999999764
aF76.23999999999882
aF77.27999999999916
aF79.27999999999983
aF79.45599999999989
aF81.08800000000043
aF81.80800000000067
aF82.09600000000077
aF83.90400000000137
aF84.19200000000147
aF85.1840000000018
aF85.85600000000203
aF86.3840000000022
aF89.58400000000327
aF90.24000000000349
aF90.54400000000359
aF91.26400000000383
aF92.09600000000411
aF93.34400000000453
aF95.02400000000509
aF95.31200000000518
aF95.32800000000519
aF97.760000000006
aF98.3680000000062
aF99.20000000000648
aF99.71200000000665
aF106.35200000000887
aF107.6320000000093
aF108.56000000000961
aF108.96000000000974
aF110.99200000001042
aF111.55200000001061
aF112.91200000001106
aF114.36800000001155
aF114.92800000001174
aF115.32800000001187
aF115.48800000001192
aF116.0160000000121
aF121.61600000001397
aF121.76000000001402
aF121.82400000001404
aF123.56800000001462
aF124.24000000001485
aF125.9040000000154
aF126.8000000000157
aF127.42400000001591
aF128.08000000001604
aF131.4080000000142
aF131.87200000001394
aF132.01600000001386
aF132.35200000001367
aF132.6560000000135
aF133.0240000000133
aF134.08000000001272
aF137.21600000001098
aF138.38400000001033
aF139.13600000000991
aF139.5360000000097
aF139.84000000000952
aF139.9040000000095
aF140.0640000000094
aF140.64000000000908
aF140.86400000000896
aF141.80800000000843
aF142.35200000000813
aF146.9440000000056
aF147.53600000000526
aF155.12000000000106
aF159.69599999999852
aF160.51199999999807
aF162.89599999999675
aF164.57599999999582
aF165.21599999999546
aF165.5039999999953
aF165.53599999999528
aF165.72799999999518
aF166.35199999999483
aF166.36799999999482
aF169.56799999999305
aF170.7519999999924
aF171.6159999999919
aF172.09599999999165
aF176.30399999998932
aF176.97599999998894
aF182.1279999999861
aF184.2719999999849
aF186.67199999998357
aF186.70399999998355
aF187.19999999998328
aF189.26399999998213
aF189.39199999998206
aF190.2079999999816
aF190.65599999998136
aF191.43999999998093
aF194.78399999997907
aF195.2799999999788
aF195.6319999999786
aF197.4559999999776
aF202.92799999997456
aF203.71199999997413
aF206.6239999999725
aF210.46399999997038
aF215.91999999996736
aF219.55199999996535
aF220.5279999999648
aF221.7919999999641
aF222.28799999996383
aF225.55199999996202
aF228.4639999999604
aF233.23199999995776
aF234.91199999995683
aF235.55199999995648
aF235.8559999999563
aF236.12799999995616
aF239.79199999995413
aF239.90399999995407
aF242.63999999995255
aF242.95999999995237
aF245.02399999995123
aF245.0879999999512
aF245.34399999995105
aF248.06399999994954
aF252.54399999994706
aF253.11999999994674
aF254.76799999994583
aF257.23199999994665
aF259.11999999994896
aF259.5839999999495
aF259.7439999999497
aF261.599999999952
aF262.79999999995346
aF263.0879999999538
aF265.1199999999563
aF269.6159999999618
aF270.55999999996294
aF271.31199999996386
aF272.04799999996476
aF273.59999999996666
aF273.66399999996673
aF274.703999999968
aF279.23199999997354
aF281.27999999997604
aF281.51999999997633
aF282.51199999997755
aF282.9439999999781
aF283.99999999997937
aF284.9279999999805
aF294.0959999999917
aF296.01599999999405
aF296.75199999999495
aF298.0799999999966
aF303.9840000000038
aF307.5200000000081
aF307.8400000000085
aF311.80800000001335
aF313.5680000000155
aF314.7040000000169
aF315.39200000001773
aF316.0160000000185
aF316.88000000001955
aF318.3200000000213
aF320.9280000000245
aF322.160000000026
aF322.52800000002645
aF327.6480000000327
aF329.4400000000349
aF329.47200000003494
aF330.04800000003564
aF330.1120000000357
aF333.32800000003965
aF333.3600000000397
aF334.08000000004057
aF334.6720000000413
aF336.2240000000432
aF336.92800000004405
aF337.68000000004497
aF340.59200000004853
aF341.34400000004945
aF341.42400000004955
aF343.0080000000515
aF343.64800000005226
aF343.9040000000526
aF344.9920000000539
aF346.0640000000552
aF346.65600000005594
aF347.16800000005657
aF347.8560000000574
aF350.6240000000608
aF351.98400000006245
aF353.5840000000644
aF355.0400000000662
aF355.728000000067
aF356.30400000006773
aF358.7520000000707
aF359.00800000007104
aF359.7120000000719
aF360.5280000000729
aF360.57600000007295
aF361.07200000007356
aF361.23200000007375
aF361.31200000007385
aF362.1600000000749
aF362.240000000075
aF365.5840000000791
aF366.32000000008
aF372.7360000000878
aF374.08000000008946
aF374.41600000008987
aF374.9440000000905
aF374.99200000009057
aF375.13600000009075
aF377.3920000000935
aF381.056000000098
aF381.1520000000981
aF381.3760000000984
aF381.7280000000988
aF381.872000000099
aF383.4240000001009
aF383.82400000010136
aF385.21600000010307
aF388.2720000001068
aF391.68000000011097
aF394.5920000001145
aF395.5680000001157
aF395.58400000011574
aF396.0640000001163
aF397.95200000011863
aF399.69600000012076
aF400.9600000001223
aF401.90400000012346
aF403.44000000012534
aF404.1280000001262
aF405.3920000001277
aF407.1040000001298
aF407.7440000001306
aF408.4000000001314
aF411.45600000013513
aF412.976000000137
aF415.31200000013985
aF415.6000000001402
aF416.72000000014157
aF420.336000000146
aF421.53600000014745
aF425.1520000001519
aF425.8240000001527
aF428.544000000156
aF435.904000000165
aF436.8160000001661
aF437.2160000001666
aF439.3440000001692
aF439.61600000016955
aF440.28800000017037
aF440.92800000017115
aF441.50400000017186
aF441.632000000172
aF442.2560000001728
aF442.9920000001737
aF443.4080000001742
aF446.9440000001785
aF447.5200000001792
aF448.8000000001808
aF449.008000000181
aF451.15200000018365
aF452.04800000018474
aF452.30400000018506
aF452.38400000018515
aF453.5520000001866
aF458.59200000019274
aF460.72000000019534
aF462.11200000019704
aF462.9760000001981
aF465.1840000002008
aF465.9040000002017
aF466.6400000002026
aF467.3120000002034
aF467.9520000002042
aF468.41600000020475
aF468.9440000002054
aF471.0080000002079
aF472.19200000020936
aF474.4480000002121
aF482.99200000022256
aF485.12000000022516
aF485.1520000002252
aF485.5840000002257
aF486.35200000022667
aF487.31200000022784
aF487.32800000022786
aF488.240000000229
aF490.0000000002311
aF491.2800000002327
aF491.50400000023296
aF492.64000000023435
aF493.93600000023594
aF494.2400000002363
aF497.4400000002402
aF497.4400000002402
aF498.4160000002414
aF501.1200000002447
aF503.6320000002478
aF504.1440000002484
aF506.0800000002508
aF506.7680000002516
aF507.21600000025217
aF509.8400000002554
aF512.9120000002558
aF514.1600000002529
aF515.2480000002504
aF515.4560000002499
aF516.0480000002485
aF516.9920000002463
aF519.4400000002406
aF520.0320000002392
aF526.0320000002253
aF527.0400000002229
aF529.7440000002166
aF530.3360000002152
aF530.9920000002137
aF533.6960000002074
aF533.9200000002069
aF535.7760000002025
aF537.4880000001986
aF540.0320000001926
aF540.720000000191
aF541.2000000001899
aF541.3760000001895
aF542.6720000001865
aF543.2320000001852
aF543.280000000185
aF543.4720000001846
aF544.7680000001816
aF545.9200000001789
aF548.8480000001721
aF551.3760000001662
aF552.0320000001647
aF552.2880000001641
aF553.1200000001621
aF555.5680000001564
aF556.160000000155
aF556.2400000001549
aF557.2160000001526
aF557.7760000001513
aF559.0720000001483
aF564.8160000001349
aF564.8640000001348
aF567.344000000129
aF569.5040000001239
aF570.2720000001221
aF573.1680000001154
aF575.5840000001098
aF576.1120000001085
aF577.2640000001059
aF577.5680000001051
aF578.3360000001034
aF580.8640000000975
aF581.4400000000961
aF585.8400000000859
aF586.0960000000853
aF586.9280000000833
aF587.6800000000816
aF591.4240000000729
aF592.1920000000711
aF592.3680000000707
aF594.0640000000667
aF594.6240000000654
aF595.5040000000633
aF601.0080000000505
aF602.5760000000469
aF602.5920000000468
aF603.2800000000452
aF603.808000000044
aF603.8720000000438
aF606.2240000000384
aF608.080000000034
aF609.4720000000308
aF613.4240000000216
aF616.0960000000154
aF617.088000000013
aF617.5040000000121
aF618.9440000000087
aF619.5040000000074
aF620.5920000000049
aF620.6560000000047
aF621.9520000000017
aF624.1919999999965
aF624.9759999999947
aF625.6159999999932
aF628.0639999999875
aF630.7359999999812
aF632.5119999999771
aF635.2159999999708
aF635.8399999999693
aF640.5439999999584
aF641.2159999999568
aF642.6079999999536
aF645.5519999999467
aF645.5999999999466
aF646.303999999945
aF647.0719999999432
aF655.1519999999243
aF655.8719999999227
aF656.1759999999219
aF657.2799999999194
aF658.8159999999158
aF658.8319999999158
aF659.9359999999132
aF661.5999999999093
aF662.2239999999078
aF662.3999999999074
aF662.9599999999061
aF665.167999999901
aF666.7039999998974
aF666.863999999897
aF667.3599999998959
aF668.143999999894
aF669.471999999891
aF674.4639999998793
aF674.623999999879
aF674.7039999998788
aF676.5599999998744
aF676.8479999998738
aF677.2159999998729
aF677.9519999998712
aF678.895999999869
aF679.5999999998674
aF682.2559999998612
aF686.8959999998503
aF687.3759999998492
aF688.9919999998455
aF689.3279999998447
aF690.031999999843
aF690.047999999843
aF691.2799999998401
aF693.1999999998357
aF694.1119999998335
aF694.6719999998322
aF695.7919999998296
aF695.8399999998295
aF696.5119999998279
aF698.3039999998238
aF700.0639999998197
aF700.5119999998186
aF701.2799999998168
aF702.1439999998148
aF707.9839999998012
aF708.3679999998003
aF708.7359999997994
aF711.4559999997931
aF712.2239999997913
aF712.8319999997899
aF713.8879999997874
aF715.791999999783
aF717.7119999997785
aF718.5919999997765
aF718.8479999997759
aF719.6799999997739
aF720.9759999997709
aF721.35999999977
aF722.7359999997668
aF722.7999999997667
aF723.535999999765
aF729.3119999997515
aF730.9439999997477
aF731.5039999997464
aF732.4639999997441
aF732.4959999997441
aF732.6879999997436
aF734.4319999997396
aF736.2239999997354
aF739.4559999997279
aF739.823999999727
aF740.687999999725
aF741.3919999997233
aF741.4719999997232
aF741.8879999997222
aF742.0479999997218
aF742.5759999997206
aF743.7759999997178
aF745.0719999997148
aF745.3599999997141
aF745.6799999997133
aF747.1679999997099
aF752.6079999996972
aF753.0239999996962
aF753.9519999996941
aF754.3519999996931
aF754.9439999996918
aF755.8399999996897
aF756.9439999996871
aF758.2079999996841
aF761.1999999996772
aF764.8159999996687
aF765.6799999996667
aF766.8159999996641
aF768.159999999661
aF768.55999999966
aF774.0319999996473
aF775.1199999996447
aF775.8079999996431
aF778.9759999996357
aF779.5199999996345
aF781.871999999629
aF784.6079999996226
aF785.2639999996211
aF785.8399999996197
aF790.7999999996082
aF792.175999999605
aF796.6719999995945
aF798.2399999995909
aF803.2159999995793
aF807.5039999995693
aF807.5839999995691
aF808.8319999995662
aF809.7279999995641
aF811.039999999561
aF812.319999999558
aF812.5599999995575
aF814.1439999995538
aF816.7679999995477
aF817.7919999995453
aF819.7759999995407
aF819.8079999995406
aF821.5839999995364
aF827.0239999995238
aF827.6479999995223
aF829.0399999995191
aF830.9599999995146
aF832.5279999995109
aF833.2159999995093
aF835.1679999995048
aF835.7919999995033
aF836.8799999995008
aF837.7759999994987
aF839.2639999994952
aF839.4559999994948
aF840.0479999994934
aF841.919999999489
aF842.6399999994874
aF846.0959999994793
aF846.655999999478
aF847.1519999994769
aF847.8719999994752
aF849.4239999994716
aF850.0319999994701
aF852.2719999994649
aF856.3839999994553
aF858.1919999994511
aF859.9199999994471
aF861.695999999443
aF862.0639999994421
aF863.2639999994393
aF863.3599999994391
aF863.9999999994376
aF864.8479999994356
aF865.087999999435
aF866.2399999994324
aF866.2879999994323
aF867.9039999994285
aF867.9359999994284
aF868.2559999994277
aF868.8799999994262
aF870.8639999994216
aF872.7999999994171
aF873.6159999994152
aF880.3999999993994
aF880.4959999993991
aF880.7359999993986
aF882.1439999993953
aF882.7519999993939
aF883.7599999993915
aF884.9119999993889
aF886.3039999993856
aF886.6559999993848
aF886.9439999993841
aF887.9519999993818
aF889.3759999993785
aF891.1519999993743
aF891.2159999993742
aF891.8879999993726
aF892.159999999372
aF892.99199999937
aF893.5519999993687
aF895.9519999993631
aF896.1279999993627
aF896.7839999993612
aF901.1839999993509
aF902.6719999993475
aF904.2079999993439
aF904.5439999993431
aF905.023999999342
aF906.8159999993378
aF906.8959999993376
aF908.4159999993341
aF909.727999999331
aF912.8319999993238
aF918.3519999993109
aF920.8159999993052
aF921.0719999993046
aF923.4399999992991
aF924.4479999992967
aF925.0719999992953
aF926.479999999292
aF927.5199999992896
aF928.3199999992877
aF930.8799999992817
aF930.9759999992815
aF932.1119999992789
aF933.1839999992764
aF933.9519999992746
aF935.8719999992701
aF937.3759999992666
aF939.7119999992611
aF941.3599999992573
aF943.4079999992525
aF944.047999999251
aF946.6719999992449
aF947.5679999992428
aF950.7039999992355
aF951.8719999992328
aF952.4799999992314
aF954.8639999992258
aF955.5359999992243
aF959.4239999992152
aF959.4719999992151
aF959.7119999992145
aF960.2559999992133
aF960.2559999992133
aF962.3519999992084
aF966.0159999991998
aF969.3279999991921
aF973.1839999991831
aF974.5599999991799
aF975.7439999991772
aF976.3999999991756
aF976.9759999991743
aF980.4639999991662
aF981.1359999991646
aF981.9359999991627
aF983.4719999991592
aF983.5679999991589
aF984.0959999991577
aF985.1519999991552
aF987.1199999991507
aF987.3279999991502
aF987.8719999991489
aF989.119999999146
aF990.8959999991418
aF991.8879999991395
aF992.527999999138
aF992.8159999991374
aF993.6639999991354
aF993.9039999991348
aF995.2159999991318
aF996.3199999991292
aF996.4799999991288
aF999.7279999991213
aF1000.4639999991196
aF1005.007999999109
aF1007.5999999991029
aF1007.8719999991023
aF1010.2879999990967
aF1015.6319999990842
aF1018.7679999990769
aF1020.0479999990739
aF1020.847999999072
aF1023.3279999990663
aF1033.4079999991095
aF1036.2079999991229
aF1037.6479999991298
aF1038.943999999136
aF1040.5599999991437
aF1045.7919999991686
aF1046.9599999991742
aF1048.399999999181
aF1049.631999999187
aF1050.3199999991903
aF1050.703999999192
aF1053.0719999992034
aF1053.2639999992043
aF1053.9039999992074
aF1055.8559999992167
aF1056.351999999219
aF1061.2799999992426
aF1061.807999999245
aF1062.223999999247
aF1062.2879999992474
aF1062.5439999992486
aF1064.2719999992569
aF1064.4319999992576
aF1065.743999999264
aF1067.5999999992728
aF1069.9199999992838
aF1071.7279999992925
aF1074.143999999304
aF1074.335999999305
aF1075.839999999312
aF1076.1599999993136
aF1077.279999999319
aF1079.359999999329
aF1082.079999999342
aF1082.3679999993433
aF1083.4399999993484
aF1085.0879999993563
aF1087.1519999993661
aF1087.9199999993698
aF1088.5119999993726
aF1088.9119999993745
aF1094.879999999403
aF1095.8079999994075
aF1101.8559999994363
aF1103.4079999994437
aF1106.3519999994578
aF1106.9919999994609
aF1108.7519999994693
aF1111.7119999994834
aF1112.671999999488
aF1113.8879999994938
aF1115.1519999994998
aF1117.9679999995133
aF1118.6399999995165
aF1120.1599999995237
aF1121.1839999995286
aF1121.247999999529
aF1122.0479999995327
aF1126.479999999554
aF1126.8799999995558
aF1127.6639999995596
aF1129.3279999995675
aF1129.9039999995703
aF1130.479999999573
aF1131.0559999995758
aF1133.1199999995856
aF1134.03199999959
aF1134.1759999995907
aF1136.7999999996032
aF1136.959999999604
aF1137.9199999996085
aF1137.999999999609
aF1139.9519999996182
aF1140.127999999619
aF1140.6879999996218
aF1141.391999999625
aF1144.6239999996405
aF1145.343999999644
aF1148.8319999996606
aF1156.1599999996956
aF1158.543999999707
aF1159.4079999997111
aF1163.0079999997283
aF1163.0079999997283
aF1163.0719999997286
aF1163.983999999733
aF1166.511999999745
aF1166.8479999997467
aF1167.8079999997512
aF1169.199999999758
aF1172.6079999997742
aF1173.2639999997773
aF1174.255999999782
aF1174.3839999997826
aF1174.9599999997854
aF1175.7759999997893
aF1176.783999999794
aF1177.2959999997965
aF1177.5359999997977
aF1180.9119999998138
aF1181.5519999998169
aF1183.5999999998267
aF1185.119999999834
aF1187.5199999998454
aF1188.51199999985
aF1190.351999999859
aF1191.7279999998655
aF1191.7439999998655
aF1192.2239999998678
aF1192.8639999998709
aF1195.1679999998819
aF1196.431999999888
aF1197.9519999998952
aF1199.375999999902
aF1199.807999999904
aF1200.0639999999053
aF1200.239999999906
aF1200.8159999999089
aF1200.9119999999093
aF1200.9599999999095
aF1203.5359999999218
aF1203.6319999999223
aF1204.5759999999268
aF1205.9039999999331
aF1206.1279999999342
aF1210.2399999999539
aF1211.0399999999577
aF1212.3359999999639
aF1212.6079999999652
aF1213.807999999971
aF1219.3119999999972
aF1219.888
aF1221.4880000000076
aF1222.1120000000105
aF1223.232000000016
aF1224.2560000000208
aF1224.4320000000216
aF1224.512000000022
aF1226.3520000000308
aF1232.048000000058
aF1232.1280000000584
aF1232.7200000000612
aF1232.9760000000624
aF1238.4000000000883
aF1239.3440000000928
aF1240.7360000000995
aF1241.7120000001041
aF1243.0400000001105
aF1244.640000000118
aF1244.8800000001193
aF1246.5600000001273
aF1246.7840000001283
aF1247.9200000001338
aF1248.592000000137
aF1248.6560000001373
aF1249.7120000001423
aF1251.2320000001496
aF1251.744000000152
aF1252.1280000001539
aF1255.2640000001688
aF1258.1600000001827
aF1258.1760000001827
aF1266.9600000002247
aF1268.3520000002313
aF1271.8880000002482
aF1272.5120000002512
aF1273.936000000258
aF1274.5920000002611
aF1279.3120000002837
aF1283.6480000003044
aF1286.3840000003174
aF1287.3920000003222
aF1289.3600000003316
aF1289.456000000332
aF1290.1760000003355
aF1291.0720000003398
aF1291.552000000342
aF1293.2640000003503
aF1295.5520000003612
aF1298.1600000003737
aF1300.0800000003828
aF1300.6240000003854
aF1302.816000000396
aF1303.7440000004003
aF1303.7600000004004
aF1304.1440000004022
aF1304.7840000004053
aF1305.152000000407
aF1305.2320000004074
aF1306.9760000004158
aF1307.6000000004187
aF1307.7440000004194
aF1309.6480000004285
aF1310.2720000004315
aF1310.5280000004327
aF1311.3920000004368
aF1312.2240000004408
aF1313.0720000004449
aF1314.2240000004504
aF1315.1360000004547
aF1316.1760000004597
aF1316.432000000461
aF1316.6240000004618
aF1317.1360000004643
aF1317.6480000004667
aF1319.1200000004737
aF1319.9040000004775
aF1320.6080000004808
aF1323.568000000495
aF1326.8800000005108
aF1327.1040000005119
aF1332.8640000005394
aF1333.648000000543
aF1334.5600000005475
aF1336.0800000005547
aF1339.9520000005732
aF1340.560000000576
aF1344.0160000005926
aF1349.4400000006185
aF1349.984000000621
aF1350.992000000626
aF1351.0720000006263
aF1351.632000000629
aF1351.84000000063
aF1352.3680000006325
aF1352.9600000006353
aF1353.95200000064
aF1354.2240000006414
aF1357.4720000006569
aF1357.920000000659
aF1358.5920000006622
aF1359.200000000665
aF1359.8720000006683
aF1366.3360000006992
aF1367.0400000007025
aF1368.0320000007073
aF1368.7520000007107
aF1373.1680000007318
aF1373.5520000007336
aF1374.0000000007358
aF1374.5120000007382
aF1377.824000000754
aF1377.9040000007544
aF1378.7200000007583
aF1381.0240000007693
aF1381.8880000007734
aF1382.1440000007747
aF1383.2160000007798
aF1387.4880000008002
aF1387.5200000008003
aF1388.0000000008026
aF1390.1120000008127
aF1393.0400000008267
aF1393.2000000008275
aF1393.7600000008301
aF1394.7360000008348
aF1395.6480000008391
aF1396.464000000843
aF1399.200000000856
aF1399.5040000008576
aF1401.6320000008677
aF1403.2480000008754
aF1404.19200000088
aF1404.8960000008833
aF1408.0320000008983
aF1408.6720000009013
aF1414.5920000009296
aF1415.6320000009346
aF1418.3520000009476
aF1423.488000000972
aF1425.2160000009803
aF1425.4720000009816
aF1426.2400000009852
aF1426.2720000009854
aF1427.1520000009896
aF1427.5520000009915
aF1427.8240000009928
aF1428.5600000009963
aF1429.2640000009997
aF1429.4880000010007
aF1430.992000001008
aF1431.8240000010119
aF1432.9440000010172
aF1433.2160000010185
aF1434.768000001026
aF1437.904000001041
aF1438.144000001042
aF1448.9440000010936
aF1449.5200000010964
aF1451.136000001104
aF1453.7920000011168
aF1456.7040000011307
aF1457.3600000011338
aF1458.0800000011373
aF1458.432000001139
aF1458.8960000011411
aF1459.5360000011442
aF1460.144000001147
aF1462.4000000011579
aF1463.7920000011645
aF1465.568000001173
aF1466.2400000011762
aF1466.3200000011766
aF1467.9040000011842
aF1472.3840000012055
aF1472.464000001206
aF1477.1840000012285
aF1483.6320000012593
aF1484.4640000012632
aF1484.4800000012633
aF1486.096000001271
aF1486.2400000012717
aF1489.0720000012852
aF1490.7520000012933
aF1491.104000001295
aF1491.6160000012974
aF1491.6800000012977
aF1492.8800000013034
aF1492.9440000013037
aF1493.0880000013044
aF1494.0960000013092
aF1494.4000000013107
aF1494.864000001313
aF1495.4080000013155
aF1498.2720000013292
aF1501.6480000013453
aF1501.792000001346
aF1503.0080000013518
aF1504.944000001361
aF1505.3920000013632
aF1506.000000001366
aF1507.2160000013719
aF1508.9600000013802
aF1509.0400000013806
aF1509.4400000013825
aF1509.6160000013833
aF1512.064000001395
aF1512.6560000013978
aF1512.896000001399
aF1513.4240000014015
aF1515.1520000014098
aF1516.464000001416
aF1518.0640000014237
aF1518.6400000014264
aF1519.616000001431
aF1520.8160000014368
aF1521.5200000014402
aF1521.9840000014424
aF1523.168000001448
aF1524.1120000014525
aF1524.9760000014567
aF1526.0480000014618
aF1527.568000001469
aF1528.3520000014728
aF1529.7920000014797
aF1530.3520000014823
aF1533.3120000014965
aF1536.5280000015118
aF1537.408000001516
aF1537.5680000015168
aF1537.9680000015187
aF1540.560000001531
aF1540.8640000015325
aF1542.6880000015412
aF1543.5680000015454
aF1544.3680000015493
aF1546.0320000015572
aF1546.9120000015614
aF1548.064000001567
aF1548.944000001571
aF1552.480000001588
aF1553.9200000015949
aF1557.6320000016126
aF1557.7440000016131
aF1557.920000001614
aF1558.352000001616
aF1562.752000001637
aF1562.7840000016372
aF1564.208000001644
aF1566.304000001654
aF1570.0000000016717
aF1570.8160000016755
aF1571.8240000016804
aF1573.4560000016882
aF1573.5200000016885
aF1574.1920000016917
aF1574.9280000016952
aF1575.0560000016958
aF1575.088000001696
aF1575.8240000016995
aF1576.6080000017032
aF1577.4720000017073
aF1579.6000000017175
aF1581.152000001725
aF1581.9360000017286
aF1584.3680000017403
aF1587.7120000017562
aF1588.304000001759
aF1589.7280000017658
aF1592.896000001781
aF1593.0720000017818
aF1594.1280000017869
aF1594.4000000017882
aF1595.184000001792
aF1598.4160000018073
aF1599.1200000018107
aF1599.6960000018134
aF1599.7440000018137
aF1600.9120000018193
aF1601.5200000018222
aF1602.4960000018268
aF1603.2320000018303
aF1607.8080000018522
aF1607.8400000018523
aF1609.8400000018619
aF1610.1760000018635
aF1612.3520000018739
aF1613.5680000018797
aF1614.256000001883
aF1614.3680000018835
aF1614.496000001884
aF1616.336000001893
aF1617.1360000018967
aF1618.3840000019027
aF1621.152000001916
aF1621.8720000019193
aF1622.4000000019219
aF1623.248000001926
aF1624.12800000193
aF1627.024000001944
aF1627.648000001947
aF1630.800000001962
aF1631.6800000019662
aF1632.6240000019707
aF1633.4240000019745
aF1633.6000000019753
aF1633.760000001976
aF1635.4720000019843
aF1636.064000001987
aF1636.5440000019894
aF1638.144000001997
aF1638.1760000019972
aF1643.0240000020203
aF1643.7280000020237
aF1644.7360000020285
aF1645.680000002033
aF1646.2720000020358
aF1647.3280000020409
aF1647.5040000020417
aF1651.952000002063
aF1652.6400000020662
aF1652.9280000020676
aF1653.200000002069
aF1656.0000000020823
aF1658.5120000020943
aF1659.296000002098
aF1659.4560000020988
aF1660.2080000021024
aF1660.976000002106
aF1661.168000002107
aF1663.4240000021177
aF1663.7440000021193
aF1663.9520000021203
aF1664.128000002121
aF1665.136000002126
aF1666.1120000021306
aF1667.3440000021365
aF1667.4080000021368
aF1668.3680000021413
aF1669.5840000021471
aF1669.7120000021478
aF1670.9120000021535
aF1671.1040000021544
aF1673.0080000021635
aF1673.0400000021637
aF1673.7120000021669
aF1674.4320000021703
aF1674.6880000021715
aF1675.6640000021762
aF1678.7360000021908
aF1681.3120000022031
aF1685.6160000022237
aF1688.7840000022388
aF1695.0400000022687
aF1695.3600000022702
aF1695.6000000022714
aF1697.7440000022816
aF1698.6080000022857
aF1702.1440000023026
aF1704.1920000023124
aF1704.8320000023155
aF1706.4800000023233
aF1707.7920000023296
aF1708.720000002334
aF1709.9040000023397
aF1710.4640000023423
aF1712.912000002354
aF1713.536000002357
aF1713.536000002357
aF1714.8640000023634
aF1717.2640000023748
aF1722.1600000023982
aF1723.8560000024063
aF1724.4960000024093
aF1725.0080000024118
aF1725.904000002416
aF1730.6720000024388
aF1732.0320000024453
aF1733.6800000024532
aF1734.3360000024563
aF1739.0080000024786
aF1740.2560000024846
aF1741.1520000024889
aF1742.1600000024937
aF1743.6160000025006
aF1745.5520000025099
aF1746.2400000025132
aF1749.344000002528
aF1750.192000002532
aF1751.87200000254
aF1752.912000002545
aF1753.0560000025457
aF1753.8560000025495
aF1755.1520000025557
aF1755.632000002558
aF1760.3520000025806
aF1762.9280000025929
aF1769.7600000026255
aF1771.2960000026328
aF1771.6960000026347
aF1772.78400000264
aF1777.4560000026622
aF1777.4880000026624
aF1779.504000002672
aF1781.1200000026797
aF1781.7600000026828
aF1782.432000002686
aF1783.1040000026892
aF1783.696000002692
aF1783.8720000026929
aF1785.6800000027015
aF1786.400000002705
aF1788.7680000027162
aF1797.0560000027558
aF1797.6480000027586
aF1798.0800000027607
aF1798.9120000027647
aF1799.5840000027679
aF1803.1040000027847
aF1803.7120000027876
aF1810.5920000028204
aF1810.9440000028221
aF1811.2800000028237
aF1815.328000002843
aF1817.3600000028528
aF1818.032000002856
aF1818.9120000028602
aF1823.1200000028803
aF1823.280000002881
aF1824.336000002886
aF1828.8960000029078
aF1831.3120000029194
aF1838.4160000029533
aF1838.4640000029535
aF1838.992000002956
aF1839.80800000296
aF1842.5760000029732
aF1843.4080000029771
aF1844.7360000029835
aF1844.8960000029842
aF1845.7120000029881
aF1846.6080000029924
aF1847.376000002996
aF1847.6160000029972
aF1848.1280000029997
aF1848.2720000030004
aF1849.4880000030062
aF1850.6400000030117
aF1850.8320000030126
aF1851.952000003018
aF1852.8640000030223
aF1854.1440000030284
aF1854.49600000303
aF1854.5280000030302
aF1857.5520000030447
aF1858.67200000305
aF1861.808000003065
aF1862.032000003066
aF1863.7440000030742
aF1865.2640000030815
aF1865.9040000030845
aF1867.1680000030906
aF1867.6000000030926
aF1870.3200000031056
aF1871.7600000031125
aF1872.6400000031167
aF1872.6720000031169
aF1873.6960000031218
aF1874.3200000031247
aF1875.7600000031316
aF1875.7760000031317
aF1880.7840000031556
aF1880.8960000031561
aF1882.5120000031638
aF1883.376000003168
aF1885.056000003176
aF1886.6720000031837
aF1888.3520000031917
aF1891.2480000032056
aF1891.4880000032067
aF1893.5680000032166
aF1895.0240000032236
aF1895.536000003226
aF1895.6960000032268
aF1897.0400000032332
aF1898.032000003238
aF1898.3040000032393
aF1898.44800000324
aF1898.9120000032422
aF1903.4240000032637
aF1908.9920000032903
aF1909.4560000032925
aF1911.0880000033003
aF1916.7680000033274
aF1917.6160000033315
aF1917.7600000033322
aF1918.6720000033365
aF1920.8960000033471
aF1922.528000003355
aF1923.168000003358
aF1923.2160000033582
aF1927.5040000033787
aF1929.664000003389
aF1930.3520000033923
aF1930.928000003395
aF1931.360000003397
aF1932.2400000034013
aF1933.2800000034063
aF1934.464000003412
aF1935.312000003416
aF1936.8640000034234
aF1940.3840000034402
aF1946.3840000034688
aF1947.2160000034728
aF1948.1280000034772
aF1948.70400000348
aF1953.2480000035016
aF1953.8240000035044
aF1955.9200000035144
aF1958.7360000035278
aF1960.7520000035374
aF1963.6960000035515
aF1965.040000003558
aF1965.056000003558
aF1965.920000003562
aF1967.5040000035697
aF1968.1600000035728
aF1969.888000003581
aF1970.4480000035837
aF1970.6720000035848
aF1972.6560000035943
aF1973.6000000035988
aF1975.0880000036059
aF1976.5120000036127
aF1977.4720000036173
aF1977.5840000036178
aF1978.7360000036233
aF1982.2720000036402
aF1984.4640000036507
aF1985.2480000036544
aF1986.0480000036582
aF1986.6560000036611
aF1987.0240000036629
aF1987.9520000036673
aF1989.4880000036746
aF1989.5040000036747
aF1990.5760000036798
aF1991.680000003685
aF1992.6080000036895
aF1993.760000003695
aF1995.024000003701
aF1996.6240000037087
aF1997.9680000037151
aF2002.4800000037367
aF2003.3600000037409
aF2005.4080000037507
aF2006.0640000037538
aF2006.2880000037549
aF2006.8480000037575
aF2008.4960000037654
aF2010.912000003777
aF2012.2400000037833
aF2013.024000003787
aF2013.7440000037905
aF2018.1920000038117
aF2019.2480000038167
aF2019.2640000038168
aF2024.6880000038427
aF2024.8480000038435
aF2026.1440000038497
aF2026.7520000038526
aF2030.624000003871
aF2034.8480000038912
aF2035.6640000038951
aF2039.1520000039118
aF2039.5840000039138
aF2040.4800000039181
aF2040.7680000039195
aF2042.3840000039272
aF2043.6480000039332
aF2047.6960000039526
aF2048.6880000039573
aF2049.2000000039598
aF2052.976000003978
aF2053.3600000039796
aF2053.904000003982
aF2054.4160000039847
aF2056.000000003992
aF2059.072000004007
aF2060.2080000040123
aF2063.6320000040287
aF2065.4400000040373
aF2066.03200000404
aF2068.08000000405
aF2068.960000004054
aF2070.2560000040603
aF2073.0400000040736
aF2074.1120000040787
aF2081.5520000041142
aF2082.144000004117
aF2083.0880000041216
aF2083.216000004122
aF2083.6960000041245
aF2083.824000004125
aF2085.072000004131
aF2090.1600000041553
aF2092.992000004169
aF2094.8320000041776
aF2097.1520000041887
aF2100.9280000042068
aF2101.824000004211
aF2103.280000004218
aF2105.3280000042278
aF2109.0080000042453
aF2109.328000004247
aF2109.8400000042493
aF2110.3200000042516
aF2110.3360000042517
aF2111.056000004255
aF2112.3520000042613
aF2112.6080000042625
aF2113.4080000042663
aF2119.6800000042963
aF2120.3200000042993
aF2123.7280000043156
aF2124.7200000043204
aF2125.3280000043233
aF2126.304000004328
aF2126.6240000043294
aF2128.9120000043404
aF2129.1680000043416
aF2129.488000004343
aF2130.528000004348
aF2131.4080000043523
aF2131.968000004355
aF2135.360000004371
aF2135.9040000043738
aF2137.0560000043793
aF2138.640000004387
aF2139.1520000043893
aF2140.960000004398
aF2143.280000004409
aF2143.6160000044106
aF2144.2560000044136
aF2144.928000004417
aF2145.1200000044178
aF2146.448000004424
aF2147.296000004428
aF2147.6160000044297
aF2149.2320000044374
aF2150.8800000044453
aF2153.536000004458
aF2158.2400000044804
aF2160.6080000044917
aF2162.512000004501
aF2164.5600000045106
aF2166.6080000045204
aF2168.432000004529
aF2170.8000000045404
aF2175.0400000045606
aF2176.2880000045666
aF2176.832000004569
aF2176.8800000045694
aF2177.200000004571
aF2179.296000004581
aF2179.6640000045827
aF2179.936000004584
aF2186.5120000046154
aF2189.2000000046282
aF2189.8400000046313
aF2190.5440000046347
aF2191.3280000046384
aF2191.5520000046395
aF2192.880000004646
aF2194.160000004652
aF2195.2800000046573
aF2199.8880000046793
aF2200.5600000046825
aF2201.4080000046865
aF2203.200000004695
aF2205.2160000047047
aF2207.4240000047153
aF2209.488000004725
aF2212.992000004742
aF2213.1360000047425
aF2214.240000004748
aF2214.8320000047506
aF2215.712000004755
aF2217.2960000047624
aF2218.1280000047664
aF2223.280000004791
aF2226.208000004805
aF2226.832000004808
aF2227.072000004809
aF2230.640000004826
aF2231.9680000048324
aF2233.312000004839
aF2233.952000004842
aF2234.6560000048453
aF2236.448000004854
aF2239.008000004866
aF2239.1520000048667
aF2239.664000004869
aF2242.144000004881
aF2245.6160000048976
aF2247.0400000049044
aF2248.22400000491
aF2249.1200000049143
aF2250.752000004922
aF2251.584000004926
aF2252.2560000049293
aF2252.8800000049323
aF2254.064000004938
aF2255.0720000049428
aF2259.0240000049616
aF2260.2560000049675
aF2260.8640000049704
aF2262.064000004976
aF2264.6080000049883
aF2266.2880000049963
aF2266.9600000049995
aF2268.0320000050046
aF2268.720000005008
aF2270.6720000050173
aF2271.7440000050224
aF2280.208000005063
aF2285.1360000050863
aF2285.4400000050878
aF2289.456000005107
aF2290.12800000511
aF2290.4480000051117
aF2292.848000005123
aF2293.472000005126
aF2294.8320000051326
aF2296.8800000051424
aF2297.5520000051456
aF2298.880000005152
aF2299.120000005153
aF2299.8080000051564
aF2300.352000005159
aF2305.344000005183
aF2306.7360000051895
aF2307.872000005195
aF2307.9840000051954
aF2308.560000005198
aF2320.048000005253
aF2320.240000005254
aF2322.4800000052646
aF2327.8560000052903
aF2328.000000005291
aF2329.8880000053
aF2330.4480000053027
aF2332.784000005314
aF2333.6000000053177
aF2334.2080000053206
aF2335.8400000053284
aF2336.5120000053316
aF2339.1680000053443
aF2344.720000005371
aF2346.864000005381
aF2346.9280000053814
aF2347.520000005384
aF2347.7600000053853
aF2350.9280000054005
aF2352.7840000054093
aF2356.1920000054256
aF2357.2000000054304
aF2358.560000005437
aF2358.608000005437
aF2359.3120000054405
aF2362.160000005454
aF2362.816000005457
aF2364.480000005465
aF2365.1680000054685
aF2368.192000005483
aF2368.7040000054853
aF2368.864000005486
aF2369.888000005491
aF2370.960000005496
aF2372.000000005501
aF2373.2960000055073
aF2374.1440000055113
aF2374.464000005513
aF2375.6160000055183
aF2376.4480000055223
aF2377.1520000055257
aF2377.3600000055267
aF2377.840000005529
aF2377.9680000055296
aF2378.896000005534
aF2382.8160000055527
aF2384.33600000556
aF2385.0720000055635
aF2386.1440000055686
aF2389.136000005583
aF2389.6480000055853
aF2390.2880000055884
aF2393.4880000056037
aF2396.512000005618
aF2396.528000005618
aF2396.7520000056193
aF2400.464000005637
aF2400.5600000056374
aF2401.312000005641
aF2403.9040000056534
aF2404.1600000056546
aF2404.7680000056575
aF2405.536000005661
aF2408.032000005673
aF2411.2640000056886
aF2414.7680000057053
aF2415.2480000057076
aF2415.9040000057107
aF2416.7520000057148
aF2416.816000005715
aF2418.7360000057242
aF2425.1200000057547
aF2425.600000005757
aF2430.40000000578
aF2435.200000005803
aF2435.5680000058046
aF2436.272000005808
aF2440.288000005827
aF2443.632000005843
aF2444.9440000058494
aF2445.8400000058537
aF2450.944000005878
aF2451.4080000058802
aF2451.552000005881
aF2452.1120000058836
aF2459.72800000592
aF2461.82400000593
aF2463.0240000059357
aF2463.296000005937
aF2463.8720000059398
aF2464.928000005945
aF2468.5920000059623
aF2469.4720000059665
aF2472.1600000059793
aF2474.848000005992
aF2475.1840000059938
aF2476.3360000059993
aF2477.6320000060055
aF2480.048000006017
aF2480.68800000602
aF2481.952000006026
aF2483.216000006032
aF2484.5280000060384
aF2484.88000000604
aF2487.792000006054
aF2487.9520000060547
aF2488.176000006056
aF2488.4960000060573
aF2489.1840000060606
aF2490.2400000060657
aF2491.10400000607
aF2492.4960000060764
aF2493.040000006079
aF2493.664000006082
aF2496.9120000060975
aF2498.1600000061035
aF2498.480000006105
aF2499.0400000061077
aF2501.0720000061174
aF2502.080000006122
aF2503.328000006128
aF2503.4080000061285
aF2503.520000006129
aF2505.184000006137
aF2507.3280000061472
aF2508.288000006152
aF2508.304000006152
aF2509.8560000061593
aF2511.1680000061656
aF2512.2080000061706
aF2513.344000006176
aF2514.0800000061795
aF2514.384000006181
aF2515.056000006184
aF2517.328000006195
aF2517.504000006196
aF2518.0960000061987
aF2519.232000006204
aF2520.1600000062085
aF2521.4240000062146
aF2521.6320000062155
aF2522.8640000062214
aF2522.9120000062217
aF2523.5040000062245
aF2524.048000006227
aF2526.4800000062387
aF2530.2400000062567
aF2530.336000006257
aF2530.8800000062597
aF2531.6640000062634
aF2532.99200000627
aF2533.7760000062735
aF2534.0160000062747
aF2535.2160000062804
aF2535.6800000062826
aF2537.1040000062894
aF2537.18400000629
aF2539.088000006299
aF2539.520000006301
aF2540.4480000063054
aF2541.0720000063084
aF2542.9760000063175
aF2546.3520000063336
aF2549.2640000063475
aF2549.328000006348
aF2552.2080000063615
aF2552.912000006365
aF2554.160000006371
aF2554.8960000063744
aF2556.7840000063834
aF2557.4080000063864
aF2558.2880000063906
aF2559.4720000063962
aF2562.8640000064124
aF2563.2960000064145
aF2563.9360000064175
aF2564.0960000064183
aF2564.832000006422
aF2567.360000006434
aF2569.440000006444
aF2572.1280000064567
aF2573.5360000064634
aF2575.9200000064748
aF2577.04000000648
aF2578.6080000064876
aF2579.2480000064907
aF2580.4800000064965
aF2582.912000006508
aF2584.8640000065175
aF2585.9200000065225
aF2586.624000006526
aF2587.088000006528
aF2588.912000006537
aF2589.184000006538
aF2590.416000006544
aF2591.5360000065493
aF2591.5840000065496
aF2592.752000006555
aF2593.312000006558
aF2594.0480000065613
aF2595.024000006566
aF2595.7440000065694
aF2596.256000006572
aF2596.912000006575
aF2599.392000006587
aF2599.9680000065896
aF2605.8080000066175
aF2609.1360000066334
aF2610.1920000066384
aF2610.768000006641
aF2614.480000006659
aF2615.776000006665
aF2616.2880000066675
aF2616.7200000066696
aF2617.680000006674
aF2619.1840000066813
aF2619.744000006684
aF2620.8480000066893
aF2620.8960000066895
aF2621.1360000066907
aF2622.848000006699
aF2623.1040000067
aF2624.336000006706
aF2629.968000006733
aF2633.4560000067495
aF2638.6400000067742
aF2641.120000006786
aF2645.312000006806
aF2648.9280000068234
aF2649.2000000068247
aF2649.264000006825
aF2650.8160000068324
aF2651.6320000068363
aF2651.9360000068377
aF2652.160000006839
aF2652.6880000068413
aF2652.816000006842
aF2659.8560000068755
aF2660.4640000068785
aF2662.032000006886
aF2662.7360000068893
aF2663.296000006892
aF2664.9440000069
aF2665.2640000069014
aF2665.4880000069024
aF2666.3360000069065
aF2669.2960000069206
aF2670.1440000069247
aF2670.5600000069267
aF2672.4640000069357
aF2673.2640000069396
aF2673.6960000069416
aF2674.208000006944
aF2676.320000006954
aF2678.208000006963
aF2679.68000000697
aF2680.3200000069733
aF2683.4720000069883
aF2683.7440000069896
aF2685.4400000069977
aF2685.744000006999
aF2687.360000007007
aF2688.00000000701
aF2693.248000007035
aF2695.344000007045
aF2696.4960000070505
aF2699.920000007067
aF2700.8800000070714
aF2701.5680000070747
aF2703.488000007084
aF2704.128000007087
aF2704.6880000070896
aF2704.8960000070906
aF2711.9520000071243
aF2712.112000007125
aF2714.9760000071387
aF2715.856000007143
aF2716.960000007148
aF2716.9920000071484
aF2717.0400000071486
aF2717.1840000071493
aF2719.1520000071587
aF2719.7280000071614
aF2719.872000007162
aF2721.0400000071677
aF2722.800000007176
aF2724.432000007184
aF2724.9760000071865
aF2728.656000007204
aF2730.2560000072117
aF2732.0960000072205
aF2733.040000007225
aF2735.552000007237
aF2737.888000007248
aF2738.736000007252
aF2739.984000007258
aF2740.36800000726
aF2741.0560000072633
aF2741.664000007266
aF2741.7120000072664
aF2743.6160000072755
aF2745.152000007283
aF2745.8720000072863
aF2746.7680000072905
aF2747.504000007294
aF2750.016000007306
aF2750.608000007309
aF2751.3280000073123
aF2753.392000007322
aF2754.160000007326
aF2754.400000007327
aF2754.864000007329
aF2756.672000007338
aF2760.224000007355
aF2760.7360000073572
aF2760.944000007358
aF2761.568000007361
aF2762.3040000073647
aF2764.4000000073747
aF2766.976000007387
aF2769.1520000073974
aF2770.2080000074025
aF2772.880000007415
aF2773.488000007418
aF2774.064000007421
aF2774.896000007425
aF2776.01600000743
aF2777.040000007435
aF2790.224000007498
aF2791.264000007503
aF2791.888000007506
aF2794.7200000075195
aF2798.5440000075378
aF2799.05600000754
aF2799.424000007542
aF2801.15200000755
aF2803.584000007562
aF2804.640000007567
aF2807.1200000075787
aF2807.6800000075814
aF2807.7440000075817
aF2809.3280000075893
aF2810.2560000075937
aF2812.5280000076045
aF2814.0320000076117
aF2819.2160000076365
aF2820.816000007644
aF2824.4640000076615
aF2828.4000000076803
aF2829.9520000076877
aF2830.000000007688
aF2830.5760000076907
aF2834.1440000077077
aF2835.488000007714
aF2838.192000007727
aF2838.81600000773
aF2839.232000007732
aF2839.808000007735
aF2840.096000007736
aF2840.224000007737
aF2844.240000007756
aF2844.848000007759
aF2845.1840000077605
aF2845.4240000077616
aF2846.944000007769
aF2848.7520000077775
aF2849.3600000077804
aF2850.144000007784
aF2850.752000007787
aF2852.384000007795
aF2852.8960000077973
aF2853.680000007801
aF2854.4640000078048
aF2855.0240000078074
aF2855.136000007808
aF2855.312000007809
aF2855.6640000078105
aF2859.6320000078294
aF2860.0480000078314
aF2861.248000007837
aF2862.032000007841
aF2867.696000007868
aF2867.904000007869
aF2870.880000007883
aF2873.792000007897
aF2874.864000007902
aF2875.632000007906
aF2875.9360000079073
aF2876.8320000079116
aF2880.1920000079276
aF2881.2000000079324
aF2882.400000007938
aF2883.200000007942
aF2883.7600000079447
aF2884.3680000079476
aF2884.9920000079505
aF2886.592000007958
aF2887.2480000079613
aF2887.8720000079643
aF2895.6320000080013
aF2896.848000008007
aF2899.6480000080205
aF2901.3120000080285
aF2902.896000008036
aF2912.5920000080823
aF2914.592000008092
aF2914.848000008093
aF2915.7760000080975
aF2915.888000008098
aF2918.9120000081125
aF2921.488000008125
aF2921.6000000081253
aF2925.4080000081435
aF2926.2560000081476
aF2927.9360000081556
aF2929.3280000081622
aF2930.99200000817
aF2933.504000008182
aF2934.320000008186
aF2934.896000008189
aF2940.0800000082136
aF2940.6880000082165
aF2942.6080000082256
aF2943.968000008232
aF2944.560000008235
aF2944.576000008235
aF2945.5520000082397
aF2946.5440000082444
aF2947.488000008249
aF2949.0880000082566
aF2949.1200000082567
aF2949.9520000082607
aF2950.9760000082656
aF2951.85600000827
aF2952.688000008274
aF2953.392000008277
aF2954.3360000082816
aF2957.152000008295
aF2957.584000008297
aF2958.1760000083
aF2960.880000008313
aF2961.488000008316
aF2961.536000008316
aF2962.4320000083203
aF2963.248000008324
aF2966.2560000083386
aF2967.648000008345
aF2970.6240000083594
aF2972.432000008368
aF2972.448000008368
aF2972.9280000083704
aF2973.040000008371
aF2973.1360000083714
aF2973.7920000083745
aF2974.2080000083765
aF2975.6320000083833
aF2979.712000008403
aF2980.2240000084053
aF2980.9120000084085
aF2981.2960000084104
aF2981.5520000084116
aF2984.736000008427
aF2985.0400000084283
aF2985.1360000084287
aF2987.296000008439
aF2987.696000008441
aF2987.904000008442
aF2988.8640000084465
aF2990.1120000084525
aF2990.5760000084547
aF2990.8000000084558
aF2992.5920000084643
aF2993.6960000084696
aF2994.432000008473
aF2995.1840000084767
aF2998.5120000084926
aF2999.040000008495
aF3000.688000008503
aF3005.8240000085275
aF3006.6880000085316
aF3007.0720000085335
aF3007.5200000085356
aF3009.088000008543
aF3009.5520000085453
aF3010.4320000085495
aF3011.808000008556
aF3011.8560000085563
aF3012.3680000085587
aF3013.024000008562
aF3017.1360000085815
aF3020.4480000085973
aF3021.632000008603
aF3021.9840000086047
aF3022.3680000086065
aF3025.5680000086218
aF3026.3840000086257
aF3027.1360000086293
aF3027.3760000086304
aF3028.384000008635
aF3028.560000008636
aF3031.1200000086483
aF3032.8480000086565
aF3034.176000008663
aF3035.440000008669
aF3036.8480000086756
aF3040.6240000086937
aF3040.8160000086946
aF3041.9840000087
aF3042.4320000087023
aF3046.784000008723
aF3047.7600000087277
aF3049.264000008735
aF3050.2720000087397
aF3050.720000008742
aF3051.552000008746
aF3052.1440000087487
aF3053.1520000087535
aF3055.6480000087654
aF3056.3360000087687
aF3058.0160000087767
aF3058.480000008779
aF3059.136000008782
aF3060.7040000087895
aF3061.4880000087933
aF3061.5840000087937
aF3061.9360000087954
aF3064.400000008807
aF3065.1040000088105
aF3067.1360000088202
aF3068.592000008827
aF3068.7040000088277
aF3069.1040000088296
aF3069.7120000088325
aF3070.224000008835
aF3070.432000008836
aF3072.544000008846
aF3074.240000008854
aF3075.9520000088623
aF3076.336000008864
aF3080.528000008884
aF3081.1840000088873
aF3081.328000008888
aF3082.6560000088944
aF3083.200000008897
aF3083.216000008897
aF3090.0160000089295
aF3091.824000008938
aF3092.3040000089404
aF3094.2240000089496
aF3095.152000008954
aF3100.0800000089775
aF3100.56000000898
aF3100.59200000898
aF3101.184000008983
aF3102.70400000899
aF3102.864000008991
aF3107.088000009011
aF3107.6000000090135
aF3110.064000009025
aF3115.5680000090515
aF3116.128000009054
aF3118.368000009065
aF3119.280000009069
aF3120.032000009073
aF3122.0480000090824
aF3126.6880000091046
aF3128.896000009115
aF3129.8240000091196
aF3130.3840000091222
aF3131.0560000091255
aF3134.4320000091416
aF3135.0880000091447
aF3136.368000009151
aF3138.064000009159
aF3139.2160000091644
aF3141.3120000091744
aF3141.9040000091773
aF3142.1440000091784
aF3144.160000009188
aF3145.7760000091957
aF3146.848000009201
aF3148.2720000092077
aF3149.360000009213
aF3149.7280000092146
aF3150.432000009218
aF3151.1520000092214
aF3153.344000009232
aF3153.952000009235
aF3154.1120000092355
aF3157.8400000092533
aF3159.26400000926
aF3159.824000009263
aF3161.2320000092695
aF3162.9440000092777
aF3164.4160000092847
aF3165.0400000092877
aF3165.8080000092914
aF3166.528000009295
aF3167.152000009298
aF3167.3440000092987
aF3168.864000009306
aF3172.864000009325
aF3173.056000009326
aF3173.9520000093303
aF3174.720000009334
aF3175.4240000093373
aF3181.184000009365
aF3182.464000009371
aF3183.2480000093747
aF3187.520000009395
aF3189.7280000094056
aF3191.8560000094158
aF3193.808000009425
aF3199.1520000094506
aF3201.8720000094636
aF3206.0320000094835
aF3206.6400000094864
aF3208.016000009493
aF3209.872000009502
aF3210.1920000095033
aF3211.0560000095074
aF3211.2640000095084
aF3217.9680000095404
aF3219.088000009546
aF3219.2640000095466
aF3219.520000009548
aF3220.9440000095547
aF3225.184000009575
aF3229.216000009594
aF3229.7120000095965
aF3233.168000009613
aF3234.416000009619
aF3237.4080000096333
aF3237.968000009636
aF3239.5040000096433
aF3240.6080000096485
aF3241.120000009651
aF3243.872000009664
aF3244.4000000096667
aF3244.672000009668
aF3246.0480000096745
aF3246.608000009677
aF3248.1120000096844
aF3248.9440000096884
aF3250.4320000096955
aF3251.2640000096994
aF3251.2960000096996
aF3252.0800000097033
aF3252.5600000097056
aF3253.248000009709
aF3254.272000009714
aF3255.8880000097215
aF3258.6240000097346
aF3260.176000009742
aF3260.5120000097436
aF3261.248000009747
aF3261.5680000097486
aF3262.064000009751
aF3262.688000009754
aF3264.3040000097617
aF3264.7040000097636
aF3267.344000009776
aF3268.2880000097807
aF3269.9360000097886
aF3270.5920000097917
aF3271.1200000097942
aF3271.680000009797
aF3277.8560000098264
aF3280.032000009837
aF3280.272000009838
aF3280.8640000098408
aF3282.128000009847
aF3286.2080000098663
aF3286.336000009867
aF3288.480000009877
aF3289.3440000098813
aF3291.1040000098897
aF3291.568000009892
aF3294.480000009906
aF3298.288000009924
aF3301.1680000099377
aF3301.5680000099396
aF3302.3520000099434
aF3304.384000009953
aF3304.752000009955
aF3305.5680000099587
aF3306.1440000099615
aF3306.5920000099636
aF3307.104000009966
aF3307.2320000099667
aF3310.01600000998
aF3313.9040000099985
aF3316.128000010009
aF3317.4560000100155
aF3319.3280000100244
aF3319.6000000100257
aF3321.4240000100344
aF3325.488000010054
aF3329.1840000100715
aF3329.5840000100734
aF3330.736000010079
aF3341.6000000101308
aF3342.320000010134
aF3343.776000010141
aF3348.512000010164
aF3349.6640000101693
aF3352.768000010184
aF3353.808000010189
aF3355.1200000101953
aF3355.248000010196
aF3358.19200001021
aF3359.5200000102163
aF3360.048000010219
aF3360.048000010219
aF3361.2480000102246
aF3364.704000010241
aF3365.0400000102427
aF3367.392000010254
aF3367.4560000102542
aF3367.9520000102566
aF3369.488000010264
aF3371.4720000102734
aF3371.6480000102742
aF3372.5120000102784
aF3372.5920000102788
aF3373.296000010282
aF3373.456000010283
aF3374.352000010287
aF3375.2480000102914
aF3376.224000010296
aF3376.9440000102995
aF3378.6400000103076
aF3379.968000010314
aF3380.6880000103174
aF3383.1680000103293
aF3383.4720000103307
aF3388.4320000103544
aF3388.6560000103555
aF3394.3040000103824
aF3395.3440000103874
aF3395.9680000103904
aF3396.4000000103924
aF3396.6240000103935
aF3397.8560000103994
aF3398.9600000104047
aF3400.8160000104135
aF3401.728000010418
aF3401.984000010419
aF3404.8000000104325
aF3413.728000010475
aF3415.3120000104827
aF3418.3520000104972
aF3418.5600000104982
aF3419.344000010502
aF3421.7760000105136
aF3422.6080000105176
aF3425.4720000105312
aF3431.088000010558
aF3432.8480000105665
aF3436.5920000105843
aF3437.328000010588
aF3438.016000010591
aF3438.032000010591
aF3440.1760000106015
aF3441.0080000106054
aF3442.5280000106127
aF3442.6880000106135
aF3446.9440000106338
aF3449.1520000106443
aF3449.3920000106455
aF3451.2320000106542
aF3452.3360000106595
aF3455.344000010674
aF3456.3680000106788
aF3459.4080000106933
aF3460.0800000106965
aF3463.4560000107126
aF3464.0640000107155
aF3469.7440000107426
aF3470.7200000107473
aF3472.928000010758
aF3475.4240000107698
aF3476.720000010776
aF3476.960000010777
aF3477.61600001078
aF3477.792000010781
aF3482.1280000108018
aF3483.82400001081
aF3485.98400001082
aF3487.9200000108294
aF3490.8160000108433
aF3491.7440000108477
aF3494.36800001086
aF3495.1040000108637
aF3497.424000010875
aF3499.9040000108866
aF3500.0800000108875
aF3501.280000010893
aF3501.888000010896
aF3502.240000010898
aF3504.544000010909
aF3505.1520000109117
aF3507.0240000109206
aF3508.0000000109253
aF3509.0560000109303
aF3509.216000010931
aF3514.192000010955
aF3516.976000010968
aF3517.37600001097
aF3519.632000010981
aF3519.9680000109825
aF3521.120000010988
aF3521.984000010992
aF3523.9200000110013
aF3525.2320000110076
aF3525.968000011011
aF3526.4960000110136
aF3526.6880000110145
aF3527.3600000110177
aF3529.136000011026
aF3530.4960000110327
aF3530.944000011035
aF3533.5360000110472
aF3537.264000011065
aF3538.6240000110715
aF3539.600000011076
aF3541.7920000110867
aF3542.4000000110896
aF3544.8480000111012
aF3546.3520000111084
aF3548.8960000111206
aF3549.840000011125
aF3550.624000011129
aF3550.624000011129
aF3555.08800001115
aF3556.2560000111557
aF3560.4000000111755
aF3563.056000011188
aF3563.648000011191
aF3565.2480000111987
aF3566.144000011203
aF3567.168000011208
aF3571.152000011227
aF3571.9520000112307
aF3572.848000011235
aF3573.040000011236
aF3575.5200000112477
aF3577.3120000112563
aF3579.9040000112686
aF3582.9600000112832
aF3583.6800000112867
aF3584.160000011289
aF3585.0720000112933
aF3586.688000011301
aF3589.584000011315
aF3590.000000011317
aF3590.416000011319
aF3591.456000011324
aF3592.304000011328
aF3593.136000011332
aF3593.376000011333
aF3594.1120000113365
aF3594.5920000113388
aF3595.2160000113417
aF3595.5840000113435
aF3597.9360000113547
aF3598.864000011359
aF3599.5360000113624
aF3600.704000011368
aF3603.616000011382
aF3605.7920000113922
aF3606.9440000113977
aF3606.9440000113977
aF3607.9040000114023
aF3609.3760000114094
aF3614.336000011433
aF3622.11200001147
aF3628.0800000114987
aF3630.1440000115085
aF3636.8480000115405
aF3638.192000011547
aF3639.3920000115527
aF3639.5200000115533
aF3639.9360000115553
aF3640.5760000115583
aF3641.1840000115612
aF3642.7360000115686
aF3642.8960000115694
aF3644.1760000115755
aF3645.760000011583
aF3648.912000011598
aF3649.504000011601
aF3653.8080000116215
aF3654.928000011627
aF3655.0720000116276
aF3655.2480000116284
aF3655.824000011631
aF3656.9440000116365
aF3657.1200000116373
aF3657.64800001164
aF3659.6320000116493
aF3659.8240000116502
aF3660.624000011654
aF3665.3280000116765
aF3673.0720000117135
aF3677.392000011734
aF3677.9360000117367
aF3680.4480000117487
aF3683.5360000117635
aF3684.4000000117676
aF3685.552000011773
aF3685.952000011775
aF3687.9200000117844
aF3689.6640000117927
aF3690.112000011795
aF3690.784000011798
aF3692.7040000118072
aF3693.28000001181
aF3693.888000011813
aF3694.8000000118172
aF3695.8560000118223
aF3697.1520000118285
aF3700.0480000118423
aF3701.1680000118477
aF3701.9680000118515
aF3702.6400000118547
aF3703.8560000118605
aF3705.632000011869
aF3705.9840000118706
aF3706.6240000118737
aF3707.344000011877
aF3707.93600001188
aF3710.7360000118933
aF3713.2480000119053
aF3713.632000011907
aF3713.6800000119074
aF3714.688000011912
aF3716.6080000119214
aF3716.8320000119224
aF3719.888000011937
aF3724.1920000119576
aF3729.952000011985
aF3730.4800000119876
aF3731.232000011991
aF3732.256000011996
aF3732.9760000119995
aF3734.080000012005
aF3735.5040000120116
aF3736.7680000120176
aF3737.28000001202
aF3737.888000012023
aF3742.096000012043
aF3743.8720000120516
aF3746.448000012064
aF3748.368000012073
aF3750.1120000120814
aF3753.8560000120992
aF3756.368000012111
aF3760.6080000121315
aF3762.0800000121385
aF3765.312000012154
aF3768.7360000121703
aF3773.536000012193
aF3774.2720000121967
aF3775.760000012204
aF3775.984000012205
aF3777.488000012212
aF3779.0560000122196
aF3781.0880000122293
aF3781.1040000122293
aF3781.9520000122334
aF3783.2800000122397
aF3783.8240000122423
aF3786.656000012256
aF3786.9600000122573
aF3791.936000012281
aF3792.544000012284
aF3793.9520000122907
aF3798.01600001231
aF3798.9280000123144
aF3799.712000012318
aF3802.016000012329
aF3802.7040000123325
aF3804.3840000123405
aF3804.8480000123427
aF3805.568000012346
aF3807.7120000123564
aF3810.0800000123677
aF3810.9120000123717
aF3811.184000012373
aF3812.256000012378
aF3814.7040000123898
aF3816.9760000124006
aF3817.2000000124017
aF3817.920000012405
aF3819.792000012414
aF3820.9440000124196
aF3824.608000012437
aF3824.8800000124384
aF3827.952000012453
aF3828.784000012457
aF3829.3120000124595
aF3830.9760000124675
aF3833.0240000124772
aF3833.792000012481
aF3837.536000012499
aF3838.5440000125036
aF3838.9120000125054
aF3839.248000012507
aF3840.3520000125122
aF3843.440000012527
aF3846.4800000125415
aF3846.624000012542
aF3846.976000012544
aF3847.2960000125454
aF3848.704000012552
aF3849.6640000125567
aF3850.40000001256
aF3852.5280000125704
aF3854.0000000125774
aF3854.352000012579
aF3856.7520000125905
aF3856.8000000125908
aF3858.8480000126006
aF3859.616000012604
aF3860.240000012607
aF3862.7840000126193
aF3863.712000012624
aF3866.8160000126386
aF3867.4560000126417
aF3867.904000012644
aF3868.0480000126445
aF3868.0480000126445
aF3868.0640000126446
aF3874.032000012673
aF3878.3200000126935
aF3878.7200000126954
aF3879.6480000127
aF3880.704000012705
aF3881.392000012708
aF3882.224000012712
aF3882.992000012716
aF3884.7520000127242
aF3884.8000000127245
aF3885.344000012727
aF3886.416000012732
aF3887.392000012737
aF3887.5680000127377
aF3887.648000012738
aF3890.6560000127524
aF3892.28800001276
aF3892.656000012762
aF3892.704000012762
aF3893.040000012764
aF3893.536000012766
aF3895.6960000127765
aF3897.072000012783
aF3898.352000012789
aF3900.3040000127985
aF3901.3760000128036
aF3902.5760000128093
aF3902.75200001281
aF3904.4640000128184
aF3905.440000012823
aF3906.3840000128275
aF3908.128000012836
aF3908.4960000128376
aF3909.872000012844
aF3910.000000012845
aF3910.1920000128457
aF3910.880000012849
aF3910.9760000128495
aF3911.904000012854
aF3914.480000012866
aF3916.752000012877
aF3918.864000012887
aF3918.8960000128873
aF3919.1840000128886
aF3920.096000012893
aF3923.5360000129094
aF3925.568000012919
aF3926.2240000129223
aF3927.0880000129264
aF3929.296000012937
aF3931.9680000129497
aF3932.656000012953
aF3933.7600000129582
aF3934.944000012964
aF3935.632000012967
aF3936.2720000129702
aF3936.848000012973
aF3937.1520000129744
aF3939.2320000129844
aF3940.5280000129906
aF3943.6960000130057
aF3945.872000013016
aF3946.2080000130177
aF3946.8480000130207
aF3947.0400000130217
aF3947.7920000130252
aF3949.824000013035
aF3954.0960000130553
aF3955.10400001306
aF3956.2080000130654
aF3956.8160000130683
aF3956.944000013069
aF3957.776000013073
aF3960.112000013084
aF3961.2160000130893
aF3962.9280000130975
aF3963.232000013099
aF3963.7760000131016
aF3967.056000013117
aF3967.7600000131206
aF3967.7920000131207
aF3969.280000013128
aF3970.8800000131355
aF3973.488000013148
aF3975.216000013156
aF3975.9360000131596
aF3978.272000013171
aF3979.8720000131784
aF3979.8880000131785
aF3981.472000013186
aF3982.528000013191
aF3985.0720000132033
aF3989.232000013223
aF3993.440000013243
aF3995.040000013251
aF3995.888000013255
aF3997.408000013262
aF4003.872000013293
aF4005.8080000133023
aF4005.8400000133024
aF4006.208000013304
aF4007.45600001331
aF4008.1600000133135
aF4009.776000013321
aF4010.320000013324
aF4010.560000013325
aF4011.424000013329
aF4011.9840000133318
aF4012.480000013334
aF4016.480000013353
aF4017.7600000133593
aF4023.984000013389
aF4027.1680000134043
aF4027.920000013408
aF4030.9760000134224
aF4031.6480000134256
aF4032.144000013428
aF4032.2400000134285
aF4032.8800000134315
aF4034.208000013438
aF4034.9760000134415
aF4038.048000013456
aF4041.168000013471
aF4043.216000013481
aF4043.8080000134837
aF4043.904000013484
aF4044.464000013487
aF4045.6800000134926
aF4046.160000013495
aF4046.4480000134963
aF4047.040000013499
aF4049.0080000135085
aF4049.5840000135113
aF4051.2480000135192
aF4051.8880000135223
aF4054.0000000135324
aF4057.7600000135503
aF4058.1920000135524
aF4065.488000013587
aF4067.2000000135954
aF4069.5680000136067
aF4071.056000013614
aF4071.1520000136143
aF4076.784000013641
aF4077.6640000136454
aF4078.2720000136483
aF4083.072000013671
aF4084.3680000136774
aF4084.672000013679
aF4085.136000013681
aF4086.2720000136865
aF4088.512000013697
aF4088.880000013699
aF4090.6560000137074
aF4091.24800001371
aF4091.792000013713
aF4092.3520000137155
aF4093.520000013721
aF4094.576000013726
aF4094.6880000137267
aF4096.192000013728
aF4096.720000013715
aF4098.384000013676
aF4102.720000013574
aF4103.29600001356
aF4105.456000013509
aF4107.344000013464
aF4107.408000013463
aF4108.144000013445
aF4112.7040000133375
aF4112.7040000133375
aF4113.520000013318
aF4114.256000013301
aF4116.304000013252
aF4116.528000013247
aF4117.408000013226
aF4118.304000013205
aF4119.312000013181
aF4121.440000013131
aF4122.432000013107
a.