(dp0
S'Start'
p1
(lp2
((I575
I421
tp3
I31
tp4
a((I575
I346
tp5
I23
tp6
a((I571
I260
tp7
I14
tp8
a((I503
I174
tp9
I7
tp10
asS'Main'
p11
(lp12
(I458
I94
tp13
a(I215
I99
tp14
a(I182
I117
tp15
a(I173
I140
tp16
a(I185
I164
tp17
a(I457
I146
tp18
a(I477
I162
tp19
a(I477
I178
tp20
a(I465
I193
tp21
a(I182
I204
tp22
a(I168
I214
tp23
a(I166
I239
tp24
a(I175
I246
tp25
a(I470
I240
tp26
a(I488
I254
tp27
a(I488
I271
tp28
a(I482
I292
tp29
a(I165
I286
tp30
a(I156
I297
tp31
a(I156
I310
tp32
a(I166
I325
tp33
a(I483
I332
tp34
a(I496
I347
tp35
a(I500
I365
tp36
a(I489
I375
tp37
a(I159
I368
tp38
a(I151
I383
tp39
a(I146
I398
tp40
a(I154
I404
tp41
a(I484
I410
tp42
a(I492
I416
tp43
a(I510
I430
tp44
a(I497
I434
tp45
a(I486
I450
tp46
a(I147
I436
tp47
a(I83
I419
tp48
a(I81
I397
tp49
a(I78
I356
tp50
a(I79
I290
tp51
a(I83
I244
tp52
a(I90
I195
tp53
a(I102
I159
tp54
a(I131
I109
tp55
a(I179
I80
tp56
a(I239
I63
tp57
a(I288
I65
tp58
a(I483
I62
tp59
a(I540
I72
tp60
a(I555
I86
tp61
a(I552
I98
tp62
a(I536
I103
tp63
a(I524
I121
tp64
a(I506
I126
tp65
a(I488
I126
tp66
a(I482
I120
tp67
asS'End'
p68
(lp69
((I28
I385
tp70
I36
tp71
a((I25
I221
tp72
I39
tp73
a((I73
I78
tp74
I42
tp75
a((I588
I75
tp76
I48
tp77
as.