(dp0
S'Start'
p1
(lp2
((I543
I134
tp3
I0
tp4
a((I236
I14
tp5
I3
tp6
a((I30
I264
tp7
I6
tp8
a((I511
I644
tp9
I12
tp10
asS'Main'
p11
(lp12
(I410
I120
tp13
a(I366
I93
tp14
a(I328
I88
tp15
a(I246
I115
tp16
a(I101
I208
tp17
a(I85
I221
tp18
a(I89
I300
tp19
a(I148
I355
tp20
a(I210
I410
tp21
a(I258
I453
tp22
a(I345
I498
tp23
a(I403
I504
tp24
a(I465
I481
tp25
a(I447
I376
tp26
a(I437
I290
tp27
a(I425
I191
tp28
asS'End'
p29
(lp30
((I331
I13
tp31
I1
tp32
a((I14
I186
tp33
I4
tp34
a((I330
I636
tp35
I9
tp36
a((I557
I201
tp37
I14
tp38
as.