(dp0
S'Start'
p1
(lp2
((I732
I160
tp3
I0
tp4
a((I335
I22
tp5
I3
tp6
a((I19
I248
tp7
I6
tp8
a((I604
I560
tp9
I12
tp10
asS'Main'
p11
(lp12
(I490
I166
tp13
a(I456
I143
tp14
a(I416
I126
tp15
a(I343
I140
tp16
a(I241
I180
tp17
a(I169
I221
tp18
a(I128
I301
tp19
a(I135
I353
tp20
a(I231
I445
tp21
a(I317
I485
tp22
a(I396
I507
tp23
a(I506
I497
tp24
a(I561
I453
tp25
a(I557
I378
tp26
a(I540
I301
tp27
a(I537
I275
tp28
a(I526
I254
tp29
asS'End'
p30
(lp31
((I404
I14
tp32
I1
tp33
a((I212
I562
tp34
I8
tp35
a((I742
I240
tp36
I15
tp37
a((I442
I587
tp38
I10
tp39
a((I165
I104
tp40
I4
tp41
as.