(dp0
S'Start'
p1
(lp2
((I688
I143
tp3
I1
tp4
a((I420
I27
tp5
I3
tp6
a((I51
I229
tp7
I7
tp8
a((I378
I582
tp9
I11
tp10
a((I537
I536
tp11
I13
tp12
asS'Main'
p13
(lp14
(I603
I265
tp15
a(I568
I154
tp16
a(I522
I118
tp17
a(I423
I115
tp18
a(I376
I121
tp19
a(I249
I172
tp20
a(I190
I248
tp21
a(I135
I305
tp22
a(I180
I413
tp23
a(I316
I500
tp24
a(I351
I504
tp25
a(I395
I507
tp26
a(I449
I479
tp27
a(I533
I436
tp28
a(I591
I339
tp29
asS'End'
p30
(lp31
((I721
I261
tp32
I0
tp33
a((I518
I27
tp34
I2
tp35
a((I125
I134
tp36
I5
tp37
a((I176
I561
tp38
I8
tp39
a((I421
I595
tp40
I10
tp41
as.