(dp0
S'Start'
p1
(lp2
((I543
I128
tp3
I0
tp4
a((I245
I6
tp5
I3
tp6
a((I10
I243
tp7
I8
tp8
a((I490
I572
tp9
I15
tp10
asS'Main'
p11
(lp12
(I397
I106
tp13
a(I373
I88
tp14
a(I341
I83
tp15
a(I245
I116
tp16
a(I195
I144
tp17
a(I153
I168
tp18
a(I123
I185
tp19
a(I95
I221
tp20
a(I80
I290
tp21
a(I135
I344
tp22
a(I183
I383
tp23
a(I232
I440
tp24
a(I267
I484
tp25
a(I319
I514
tp26
a(I395
I521
tp27
a(I467
I471
tp28
a(I450
I371
tp29
a(I436
I288
tp30
a(I429
I251
tp31
a(I422
I195
tp32
a(I412
I132
tp33
asS'End'
p34
(lp35
((I336
I11
tp36
I1
tp37
a((I12
I190
tp38
I7
tp39
a((I322
I631
tp40
I12
tp41
a((I387
I637
tp42
I13
tp43
a((I575
I186
tp44
I18
tp45
as.