(dp0
S'Start'
p1
(lp2
((I732
I160
tp3
I0
tp4
a((I335
I22
tp5
I3
tp6
a((I19
I248
tp7
I6
tp8
a((I604
I560
tp9
I12
tp10
a((I536
I593
tp11
I11
tp12
asS'Main'
p13
(lp14
(I490
I166
tp15
a(I456
I143
tp16
a(I416
I126
tp17
a(I343
I140
tp18
a(I241
I180
tp19
a(I169
I221
tp20
a(I128
I301
tp21
a(I135
I353
tp22
a(I231
I445
tp23
a(I317
I485
tp24
a(I396
I507
tp25
a(I506
I497
tp26
a(I561
I453
tp27
a(I557
I378
tp28
a(I540
I301
tp29
a(I537
I275
tp30
a(I526
I254
tp31
asS'End'
p32
(lp33
((I404
I14
tp34
I1
tp35
a((I212
I562
tp36
I8
tp37
a((I742
I240
tp38
I15
tp39
a((I442
I587
tp40
I10
tp41
a((I165
I104
tp42
I4
tp43
as.